(lp0
(S'elfflags'
p1
ccopy_reg
_reconstructor
p2
(cino.utils
SpaceList
p3
c__builtin__
list
p4
(lp5
S'-Os'
p6
aS'-Wl,--gc-sections'
p7
aS'-mmcu=atmega328p'
p8
atp9
Rp10
tp11
a(S'version.txt'
p12
S'/usr/share/arduino/lib/version.txt'
p13
tp14
a(S'used_libs'
p15
(lp16
S'lib/RCswitch'
p17
aS'/usr/share/arduino/hardware/arduino/cores/arduino'
p18
atp19
a(S'cxx'
p20
S'/usr/bin/avr-g++'
p21
tp22
a(S'arduino_libraries_dir'
p23
S'/usr/share/arduino/libraries'
p24
tp25
a(S'arduino_core_dir'
p26
g18
tp27
a(S'boards.txt'
p28
S'/usr/share/arduino/hardware/arduino/boards.txt'
p29
tp30
a(S'cxxflags'
p31
g2
(g3
g4
(lp32
S'-fno-exceptions'
p33
atp34
Rp35
tp36
a(S'arduino_variants_dir'
p37
S'/usr/share/arduino/hardware/arduino/variants'
p38
tp39
a(S'avrdude'
p40
S'/usr/share/arduino/hardware/tools/avrdude'
p41
tp42
a(S'avrdude.conf'
p43
S'/usr/share/arduino/hardware/tools/avrdude.conf'
p44
tp45
a(S'names'
p46
(dp47
S'cpp'
p48
S'%s.cpp'
p49
sS'obj'
p50
S'%s.o'
p51
sS'deps'
p52
S'%s.d'
p53
sS'lib'
p54
S'lib%s.a'
p55
stp56
a(S'cflags'
p57
g2
(g3
g4
(lp58
g8
aS'-ffunction-sections'
p59
aS'-fdata-sections'
p60
aS'-g'
p61
ag6
aS'-w'
p62
aS'-DF_CPU=16000000L'
p63
aS'-DARDUINO=100'
p64
aS'-I/usr/share/arduino/hardware/arduino/cores/arduino'
p65
aS'-I/usr/share/arduino/hardware/arduino/variants/eightanaloginputs'
p66
aS'-Ilib/RCswitch'
p67
aS'-I/usr/share/arduino/hardware/arduino/cores/arduino'
p68
aS'-I/usr/share/arduino/hardware/arduino/cores/arduino/avr-libc'
p69
atp70
Rp71
tp72
a(S'deps'
p73
g2
(g3
g4
(lp74
S'.build/nano328/src/dependencies.d'
p75
aS'.build/nano328/arduino/dependencies.d'
p76
aS'.build/nano328/RCswitch/dependencies.d'
p77
atp78
Rp79
tp80
a(S'stty'
p81
S'/bin/stty'
p82
tp83
a(S'arduino_lib_version'
p84
g2
(cino.environment
Version
p85
c__builtin__
tuple
p86
(I1
I0
tp87
tp88
Rp89
tp90
a(S'objcopy'
p91
S'/usr/bin/avr-objcopy'
p92
tp93
a(S'ar'
p94
S'/usr/bin/avr-ar'
p95
tp96
a(S'board_models'
p97
cino.environment
BoardModels
p98
((lp99
(lp100
S'uno'
p101
a(dp102
S'bootloader'
p103
(dp104
S'extended_fuses'
p105
S'0x05'
p106
sS'high_fuses'
p107
S'0xde'
p108
sS'low_fuses'
p109
S'0xff'
p110
sS'lock_bits'
p111
S'0x0F'
p112
sS'file'
p113
S'optiboot_atmega328.hex'
p114
sS'path'
p115
S'optiboot'
p116
sS'unlock_bits'
p117
S'0x3F'
p118
ssS'upload'
p119
(dp120
S'speed'
p121
S'115200'
p122
sS'maximum_size'
p123
S'32256'
p124
sS'protocol'
p125
S'arduino'
p126
ssS'name'
p127
S'Arduino Uno'
p128
sS'build'
p129
(dp130
S'core'
p131
S'arduino'
p132
sS'mcu'
p133
S'atmega328p'
p134
sS'f_cpu'
p135
S'16000000L'
p136
sS'variant'
p137
S'standard'
p138
ssaa(lp139
S'atmega328'
p140
a(dp141
S'bootloader'
p142
(dp143
S'extended_fuses'
p144
S'0x05'
p145
sS'high_fuses'
p146
S'0xDA'
p147
sS'low_fuses'
p148
S'0xFF'
p149
sS'lock_bits'
p150
S'0x0F'
p151
sS'file'
p152
S'ATmegaBOOT_168_atmega328.hex'
p153
sS'path'
p154
S'atmega'
p155
sS'unlock_bits'
p156
S'0x3F'
p157
ssS'upload'
p158
(dp159
S'speed'
p160
S'57600'
p161
sS'maximum_size'
p162
S'30720'
p163
sS'protocol'
p164
S'arduino'
p165
ssS'name'
p166
S'Arduino Duemilanove w/ ATmega328'
p167
sS'build'
p168
(dp169
S'core'
p170
S'arduino'
p171
sS'mcu'
p172
S'atmega328p'
p173
sS'f_cpu'
p174
S'16000000L'
p175
sS'variant'
p176
S'standard'
p177
ssaa(lp178
S'diecimila'
p179
a(dp180
S'bootloader'
p181
(dp182
S'extended_fuses'
p183
S'0x00'
p184
sS'high_fuses'
p185
S'0xdd'
p186
sS'low_fuses'
p187
S'0xff'
p188
sS'lock_bits'
p189
S'0x0F'
p190
sS'file'
p191
S'ATmegaBOOT_168_diecimila.hex'
p192
sS'path'
p193
S'atmega'
p194
sS'unlock_bits'
p195
S'0x3F'
p196
ssS'upload'
p197
(dp198
S'speed'
p199
S'19200'
p200
sS'maximum_size'
p201
S'14336'
p202
sS'protocol'
p203
S'arduino'
p204
ssS'name'
p205
S'Arduino Diecimila or Duemilanove w/ ATmega168'
p206
sS'build'
p207
(dp208
S'core'
p209
S'arduino'
p210
sS'mcu'
p211
S'atmega168'
p212
sS'f_cpu'
p213
S'16000000L'
p214
sS'variant'
p215
S'standard'
p216
ssaa(lp217
S'nano328'
p218
a(dp219
S'bootloader'
p220
(dp221
S'extended_fuses'
p222
S'0x05'
p223
sS'high_fuses'
p224
S'0xDA'
p225
sS'low_fuses'
p226
S'0xFF'
p227
sS'lock_bits'
p228
S'0x0F'
p229
sS'file'
p230
S'ATmegaBOOT_168_atmega328.hex'
p231
sS'path'
p232
S'atmega'
p233
sS'unlock_bits'
p234
S'0x3F'
p235
ssS'upload'
p236
(dp237
S'speed'
p238
S'57600'
p239
sS'maximum_size'
p240
S'30720'
p241
sS'protocol'
p242
S'arduino'
p243
ssS'name'
p244
S'Arduino Nano w/ ATmega328'
p245
sS'build'
p246
(dp247
S'core'
p248
S'arduino'
p249
sS'mcu'
p250
S'atmega328p'
p251
sS'f_cpu'
p252
S'16000000L'
p253
sS'variant'
p254
S'eightanaloginputs'
p255
ssaa(lp256
S'nano'
p257
a(dp258
S'bootloader'
p259
(dp260
S'extended_fuses'
p261
S'0x00'
p262
sS'high_fuses'
p263
S'0xdd'
p264
sS'low_fuses'
p265
S'0xff'
p266
sS'lock_bits'
p267
S'0x0F'
p268
sS'file'
p269
S'ATmegaBOOT_168_diecimila.hex'
p270
sS'path'
p271
S'atmega'
p272
sS'unlock_bits'
p273
S'0x3F'
p274
ssS'upload'
p275
(dp276
S'speed'
p277
S'19200'
p278
sS'maximum_size'
p279
S'14336'
p280
sS'protocol'
p281
S'arduino'
p282
ssS'name'
p283
S'Arduino Nano w/ ATmega168'
p284
sS'build'
p285
(dp286
S'core'
p287
S'arduino'
p288
sS'mcu'
p289
S'atmega168'
p290
sS'f_cpu'
p291
S'16000000L'
p292
sS'variant'
p293
S'eightanaloginputs'
p294
ssaa(lp295
S'mega2560'
p296
a(dp297
S'bootloader'
p298
(dp299
S'extended_fuses'
p300
S'0xFD'
p301
sS'high_fuses'
p302
S'0xD8'
p303
sS'low_fuses'
p304
S'0xFF'
p305
sS'lock_bits'
p306
S'0x0F'
p307
sS'file'
p308
S'stk500boot_v2_mega2560.hex'
p309
sS'path'
p310
S'stk500v2'
p311
sS'unlock_bits'
p312
S'0x3F'
p313
ssS'upload'
p314
(dp315
S'speed'
p316
S'115200'
p317
sS'maximum_size'
p318
S'258048'
p319
sS'protocol'
p320
S'stk500v2'
p321
ssS'name'
p322
S'Arduino Mega 2560 or Mega ADK'
p323
sS'build'
p324
(dp325
S'core'
p326
S'arduino'
p327
sS'mcu'
p328
S'atmega2560'
p329
sS'f_cpu'
p330
S'16000000L'
p331
sS'variant'
p332
S'mega'
p333
ssaa(lp334
S'mega'
p335
a(dp336
S'bootloader'
p337
(dp338
S'extended_fuses'
p339
S'0xF5'
p340
sS'high_fuses'
p341
S'0xDA'
p342
sS'low_fuses'
p343
S'0xFF'
p344
sS'lock_bits'
p345
S'0x0F'
p346
sS'file'
p347
S'ATmegaBOOT_168_atmega1280.hex'
p348
sS'path'
p349
S'atmega'
p350
sS'unlock_bits'
p351
S'0x3F'
p352
ssS'upload'
p353
(dp354
S'speed'
p355
S'57600'
p356
sS'maximum_size'
p357
S'126976'
p358
sS'protocol'
p359
S'arduino'
p360
ssS'name'
p361
S'Arduino Mega (ATmega1280)'
p362
sS'build'
p363
(dp364
S'core'
p365
S'arduino'
p366
sS'mcu'
p367
S'atmega1280'
p368
sS'f_cpu'
p369
S'16000000L'
p370
sS'variant'
p371
S'mega'
p372
ssaa(lp373
S'leonardo'
p374
a(dp375
S'bootloader'
p376
(dp377
S'extended_fuses'
p378
S'0xcb'
p379
sS'high_fuses'
p380
S'0xd8'
p381
sS'low_fuses'
p382
S'0xff'
p383
sS'lock_bits'
p384
S'0x2F'
p385
sS'file'
p386
S'Caterina-Leonardo.hex'
p387
sS'path'
p388
S'caterina'
p389
sS'unlock_bits'
p390
S'0x3F'
p391
ssS'upload'
p392
(dp393
S'speed'
p394
S'57600'
p395
sS'maximum_size'
p396
S'28672'
p397
sS'protocol'
p398
S'avr109'
p399
sS'disable_flushing'
p400
S'true'
p401
ssS'name'
p402
S'Arduino Leonardo'
p403
sS'build'
p404
(dp405
S'core'
p406
S'arduino'
p407
sS'f_cpu'
p408
S'16000000L'
p409
sS'vid'
p410
S'0x2341'
p411
sS'pid'
p412
S'0x8036'
p413
sS'variant'
p414
S'leonardo'
p415
sS'mcu'
p416
S'atmega32u4'
p417
ssaa(lp418
S'mini328'
p419
a(dp420
S'bootloader'
p421
(dp422
S'extended_fuses'
p423
S'0x05'
p424
sS'high_fuses'
p425
S'0xd8'
p426
sS'low_fuses'
p427
S'0xff'
p428
sS'lock_bits'
p429
S'0x0F'
p430
sS'file'
p431
S'optiboot_atmega328-Mini.hex'
p432
sS'path'
p433
S'optiboot'
p434
sS'unlock_bits'
p435
S'0x3F'
p436
ssS'upload'
p437
(dp438
S'speed'
p439
S'115200'
p440
sS'maximum_size'
p441
S'28672'
p442
sS'protocol'
p443
S'arduino'
p444
ssS'name'
p445
S'Arduino Mini w/ ATmega328'
p446
sS'build'
p447
(dp448
S'core'
p449
S'arduino'
p450
sS'mcu'
p451
S'atmega328p'
p452
sS'f_cpu'
p453
S'16000000L'
p454
sS'variant'
p455
S'eightanaloginputs'
p456
ssaa(lp457
S'mini'
p458
a(dp459
S'bootloader'
p460
(dp461
S'extended_fuses'
p462
S'0x00'
p463
sS'high_fuses'
p464
S'0xdd'
p465
sS'low_fuses'
p466
S'0xff'
p467
sS'lock_bits'
p468
S'0x0F'
p469
sS'file'
p470
S'ATmegaBOOT_168_ng.hex'
p471
sS'path'
p472
S'atmega'
p473
sS'unlock_bits'
p474
S'0x3F'
p475
ssS'upload'
p476
(dp477
S'speed'
p478
S'19200'
p479
sS'maximum_size'
p480
S'14336'
p481
sS'protocol'
p482
S'arduino'
p483
ssS'name'
p484
S'Arduino Mini w/ ATmega168'
p485
sS'build'
p486
(dp487
S'core'
p488
S'arduino'
p489
sS'mcu'
p490
S'atmega168'
p491
sS'f_cpu'
p492
S'16000000L'
p493
sS'variant'
p494
S'eightanaloginputs'
p495
ssaa(lp496
S'ethernet'
p497
a(dp498
S'bootloader'
p499
(dp500
S'extended_fuses'
p501
S'0x05'
p502
sS'high_fuses'
p503
S'0xde'
p504
sS'low_fuses'
p505
S'0xff'
p506
sS'lock_bits'
p507
S'0x0F'
p508
sS'file'
p509
S'optiboot_atmega328.hex'
p510
sS'path'
p511
S'optiboot'
p512
sS'unlock_bits'
p513
S'0x3F'
p514
ssS'upload'
p515
(dp516
S'speed'
p517
S'115200'
p518
sS'maximum_size'
p519
S'32256'
p520
sS'protocol'
p521
S'arduino'
p522
ssS'name'
p523
S'Arduino Ethernet'
p524
sS'build'
p525
(dp526
S'f_cpu'
p527
S'16000000L'
p528
sS'mcu'
p529
S'atmega328p'
p530
sS'variant'
p531
S'standard'
p532
sS'core'
p533
S'arduino'
p534
ssaa(lp535
S'fio'
p536
a(dp537
S'bootloader'
p538
(dp539
S'extended_fuses'
p540
S'0x05'
p541
sS'high_fuses'
p542
S'0xDA'
p543
sS'low_fuses'
p544
S'0xFF'
p545
sS'lock_bits'
p546
S'0x0F'
p547
sS'file'
p548
S'ATmegaBOOT_168_atmega328_pro_8MHz.hex'
p549
sS'path'
p550
S'arduino:atmega'
p551
sS'unlock_bits'
p552
S'0x3F'
p553
ssS'upload'
p554
(dp555
S'speed'
p556
S'57600'
p557
sS'maximum_size'
p558
S'30720'
p559
sS'protocol'
p560
S'arduino'
p561
ssS'name'
p562
S'Arduino Fio'
p563
sS'build'
p564
(dp565
S'core'
p566
S'arduino'
p567
sS'mcu'
p568
S'atmega328p'
p569
sS'f_cpu'
p570
S'8000000L'
p571
sS'variant'
p572
S'eightanaloginputs'
p573
ssaa(lp574
S'bt328'
p575
a(dp576
S'bootloader'
p577
(dp578
S'extended_fuses'
p579
S'0x05'
p580
sS'high_fuses'
p581
S'0xd8'
p582
sS'low_fuses'
p583
S'0xff'
p584
sS'lock_bits'
p585
S'0x0F'
p586
sS'file'
p587
S'ATmegaBOOT_168_atmega328_bt.hex'
p588
sS'path'
p589
S'bt'
p590
sS'unlock_bits'
p591
S'0x3F'
p592
ssS'upload'
p593
(dp594
S'speed'
p595
S'19200'
p596
sS'maximum_size'
p597
S'28672'
p598
sS'protocol'
p599
S'arduino'
p600
sS'disable_flushing'
p601
S'true'
p602
ssS'name'
p603
S'Arduino BT w/ ATmega328'
p604
sS'build'
p605
(dp606
S'core'
p607
S'arduino'
p608
sS'mcu'
p609
S'atmega328p'
p610
sS'f_cpu'
p611
S'16000000L'
p612
sS'variant'
p613
S'eightanaloginputs'
p614
ssaa(lp615
S'bt'
p616
a(dp617
S'bootloader'
p618
(dp619
S'extended_fuses'
p620
S'0x00'
p621
sS'high_fuses'
p622
S'0xdd'
p623
sS'low_fuses'
p624
S'0xff'
p625
sS'lock_bits'
p626
S'0x0F'
p627
sS'file'
p628
S'ATmegaBOOT_168.hex'
p629
sS'path'
p630
S'bt'
p631
sS'unlock_bits'
p632
S'0x3F'
p633
ssS'upload'
p634
(dp635
S'speed'
p636
S'19200'
p637
sS'maximum_size'
p638
S'14336'
p639
sS'protocol'
p640
S'arduino'
p641
sS'disable_flushing'
p642
S'true'
p643
ssS'name'
p644
S'Arduino BT w/ ATmega168'
p645
sS'build'
p646
(dp647
S'core'
p648
S'arduino'
p649
sS'mcu'
p650
S'atmega168'
p651
sS'f_cpu'
p652
S'16000000L'
p653
sS'variant'
p654
S'eightanaloginputs'
p655
ssaa(lp656
S'lilypad328'
p657
a(dp658
S'bootloader'
p659
(dp660
S'extended_fuses'
p661
S'0x05'
p662
sS'high_fuses'
p663
S'0xDA'
p664
sS'low_fuses'
p665
S'0xFF'
p666
sS'lock_bits'
p667
S'0x0F'
p668
sS'file'
p669
S'ATmegaBOOT_168_atmega328_pro_8MHz.hex'
p670
sS'path'
p671
S'atmega'
p672
sS'unlock_bits'
p673
S'0x3F'
p674
ssS'upload'
p675
(dp676
S'speed'
p677
S'57600'
p678
sS'maximum_size'
p679
S'30720'
p680
sS'protocol'
p681
S'arduino'
p682
ssS'name'
p683
S'LilyPad Arduino w/ ATmega328'
p684
sS'build'
p685
(dp686
S'core'
p687
S'arduino'
p688
sS'mcu'
p689
S'atmega328p'
p690
sS'f_cpu'
p691
S'8000000L'
p692
sS'variant'
p693
S'standard'
p694
ssaa(lp695
S'lilypad'
p696
a(dp697
S'bootloader'
p698
(dp699
S'extended_fuses'
p700
S'0x00'
p701
sS'high_fuses'
p702
S'0xdd'
p703
sS'low_fuses'
p704
S'0xe2'
p705
sS'lock_bits'
p706
S'0x0F'
p707
sS'file'
p708
S'LilyPadBOOT_168.hex'
p709
sS'path'
p710
S'lilypad'
p711
sS'unlock_bits'
p712
S'0x3F'
p713
ssS'upload'
p714
(dp715
S'speed'
p716
S'19200'
p717
sS'maximum_size'
p718
S'14336'
p719
sS'protocol'
p720
S'arduino'
p721
ssS'name'
p722
S'LilyPad Arduino w/ ATmega168'
p723
sS'build'
p724
(dp725
S'core'
p726
S'arduino'
p727
sS'mcu'
p728
S'atmega168'
p729
sS'f_cpu'
p730
S'8000000L'
p731
sS'variant'
p732
S'standard'
p733
ssaa(lp734
S'pro5v328'
p735
a(dp736
S'bootloader'
p737
(dp738
S'extended_fuses'
p739
S'0x05'
p740
sS'high_fuses'
p741
S'0xDA'
p742
sS'low_fuses'
p743
S'0xFF'
p744
sS'lock_bits'
p745
S'0x0F'
p746
sS'file'
p747
S'ATmegaBOOT_168_atmega328.hex'
p748
sS'path'
p749
S'atmega'
p750
sS'unlock_bits'
p751
S'0x3F'
p752
ssS'upload'
p753
(dp754
S'speed'
p755
S'57600'
p756
sS'maximum_size'
p757
S'30720'
p758
sS'protocol'
p759
S'arduino'
p760
ssS'name'
p761
S'Arduino Pro or Pro Mini (5V, 16 MHz) w/ ATmega328'
p762
sS'build'
p763
(dp764
S'core'
p765
S'arduino'
p766
sS'mcu'
p767
S'atmega328p'
p768
sS'f_cpu'
p769
S'16000000L'
p770
sS'variant'
p771
S'standard'
p772
ssaa(lp773
S'pro5v'
p774
a(dp775
S'bootloader'
p776
(dp777
S'extended_fuses'
p778
S'0x00'
p779
sS'high_fuses'
p780
S'0xdd'
p781
sS'low_fuses'
p782
S'0xff'
p783
sS'lock_bits'
p784
S'0x0F'
p785
sS'file'
p786
S'ATmegaBOOT_168_diecimila.hex'
p787
sS'path'
p788
S'atmega'
p789
sS'unlock_bits'
p790
S'0x3F'
p791
ssS'upload'
p792
(dp793
S'speed'
p794
S'19200'
p795
sS'maximum_size'
p796
S'14336'
p797
sS'protocol'
p798
S'arduino'
p799
ssS'name'
p800
S'Arduino Pro or Pro Mini (5V, 16 MHz) w/ ATmega168'
p801
sS'build'
p802
(dp803
S'core'
p804
S'arduino'
p805
sS'mcu'
p806
S'atmega168'
p807
sS'f_cpu'
p808
S'16000000L'
p809
sS'variant'
p810
S'standard'
p811
ssaa(lp812
S'pro328'
p813
a(dp814
S'bootloader'
p815
(dp816
S'extended_fuses'
p817
S'0x05'
p818
sS'high_fuses'
p819
S'0xDA'
p820
sS'low_fuses'
p821
S'0xFF'
p822
sS'lock_bits'
p823
S'0x0F'
p824
sS'file'
p825
S'ATmegaBOOT_168_atmega328_pro_8MHz.hex'
p826
sS'path'
p827
S'atmega'
p828
sS'unlock_bits'
p829
S'0x3F'
p830
ssS'upload'
p831
(dp832
S'speed'
p833
S'57600'
p834
sS'maximum_size'
p835
S'30720'
p836
sS'protocol'
p837
S'arduino'
p838
ssS'name'
p839
S'Arduino Pro or Pro Mini (3.3V, 8 MHz) w/ ATmega328'
p840
sS'build'
p841
(dp842
S'core'
p843
S'arduino'
p844
sS'mcu'
p845
S'atmega328p'
p846
sS'f_cpu'
p847
S'8000000L'
p848
sS'variant'
p849
S'standard'
p850
ssaa(lp851
S'pro'
p852
a(dp853
S'bootloader'
p854
(dp855
S'extended_fuses'
p856
S'0x00'
p857
sS'high_fuses'
p858
S'0xdd'
p859
sS'low_fuses'
p860
S'0xc6'
p861
sS'lock_bits'
p862
S'0x0F'
p863
sS'file'
p864
S'ATmegaBOOT_168_pro_8MHz.hex'
p865
sS'path'
p866
S'atmega'
p867
sS'unlock_bits'
p868
S'0x3F'
p869
ssS'upload'
p870
(dp871
S'speed'
p872
S'19200'
p873
sS'maximum_size'
p874
S'14336'
p875
sS'protocol'
p876
S'arduino'
p877
ssS'name'
p878
S'Arduino Pro or Pro Mini (3.3V, 8 MHz) w/ ATmega168'
p879
sS'build'
p880
(dp881
S'core'
p882
S'arduino'
p883
sS'mcu'
p884
S'atmega168'
p885
sS'f_cpu'
p886
S'8000000L'
p887
sS'variant'
p888
S'standard'
p889
ssaa(lp890
S'atmega168'
p891
a(dp892
S'bootloader'
p893
(dp894
S'extended_fuses'
p895
S'0x00'
p896
sS'high_fuses'
p897
S'0xdd'
p898
sS'low_fuses'
p899
S'0xff'
p900
sS'lock_bits'
p901
S'0x0F'
p902
sS'file'
p903
S'ATmegaBOOT_168_ng.hex'
p904
sS'path'
p905
S'atmega'
p906
sS'unlock_bits'
p907
S'0x3F'
p908
ssS'upload'
p909
(dp910
S'speed'
p911
S'19200'
p912
sS'maximum_size'
p913
S'14336'
p914
sS'protocol'
p915
S'arduino'
p916
ssS'name'
p917
S'Arduino NG or older w/ ATmega168'
p918
sS'build'
p919
(dp920
S'core'
p921
S'arduino'
p922
sS'mcu'
p923
S'atmega168'
p924
sS'f_cpu'
p925
S'16000000L'
p926
sS'variant'
p927
S'standard'
p928
ssaa(lp929
S'atmega8'
p930
a(dp931
S'bootloader'
p932
(dp933
S'high_fuses'
p934
S'0xca'
p935
sS'low_fuses'
p936
S'0xdf'
p937
sS'lock_bits'
p938
S'0x0F'
p939
sS'file'
p940
S'ATmegaBOOT.hex'
p941
sS'path'
p942
S'atmega8'
p943
sS'unlock_bits'
p944
S'0x3F'
p945
ssS'upload'
p946
(dp947
S'speed'
p948
S'19200'
p949
sS'maximum_size'
p950
S'7168'
p951
sS'protocol'
p952
S'arduino'
p953
ssS'name'
p954
S'Arduino NG or older w/ ATmega8'
p955
sS'build'
p956
(dp957
S'core'
p958
S'arduino'
p959
sS'mcu'
p960
S'atmega8'
p961
sS'f_cpu'
p962
S'16000000L'
p963
sS'variant'
p964
S'standard'
p965
ssaatp966
Rp967
(dp968
S'default'
p969
S'uno'
p970
sbtp971
a(S'cc'
p972
S'/usr/bin/avr-gcc'
p973
tp974
a(S'build_dir'
p975
S'.build/nano328'
p976
tp977
a.