(lp0
(S'cc'
p1
S'/usr/bin/avr-gcc'
p2
tp3
a(S'elfflags'
p4
ccopy_reg
_reconstructor
p5
(cino.utils
SpaceList
p6
c__builtin__
list
p7
(lp8
S'-Os'
p9
aS'-Wl,--gc-sections'
p10
aS'-mmcu=atmega328p'
p11
atp12
Rp13
tp14
a(S'version.txt'
p15
S'/usr/share/arduino/lib/version.txt'
p16
tp17
a(S'used_libs'
p18
(lp19
S'lib/RCswitch'
p20
aS'/usr/share/arduino/hardware/arduino/cores/arduino'
p21
atp22
a(S'cxx'
p23
S'/usr/bin/avr-g++'
p24
tp25
a(S'arduino_libraries_dir'
p26
S'/usr/share/arduino/libraries'
p27
tp28
a(S'arduino_core_dir'
p29
g21
tp30
a(S'boards.txt'
p31
S'/usr/share/arduino/hardware/arduino/boards.txt'
p32
tp33
a(S'cxxflags'
p34
g5
(g6
g7
(lp35
S'-fno-exceptions'
p36
atp37
Rp38
tp39
a(S'arduino_variants_dir'
p40
S'/usr/share/arduino/hardware/arduino/variants'
p41
tp42
a(S'avrdude'
p43
S'/usr/share/arduino/hardware/tools/avrdude'
p44
tp45
a(S'avrdude.conf'
p46
S'/usr/share/arduino/hardware/tools/avrdude.conf'
p47
tp48
a(S'names'
p49
(dp50
S'cpp'
p51
S'%s.cpp'
p52
sS'obj'
p53
S'%s.o'
p54
sS'deps'
p55
S'%s.d'
p56
sS'lib'
p57
S'lib%s.a'
p58
stp59
a(S'cflags'
p60
g5
(g6
g7
(lp61
g11
aS'-ffunction-sections'
p62
aS'-fdata-sections'
p63
aS'-g'
p64
ag9
aS'-w'
p65
aS'-DF_CPU=16000000L'
p66
aS'-DARDUINO=100'
p67
aS'-I/usr/share/arduino/hardware/arduino/cores/arduino'
p68
aS'-I/usr/share/arduino/hardware/arduino/variants/eightanaloginputs'
p69
aS'-Ilib/RCswitch'
p70
aS'-I/usr/share/arduino/hardware/arduino/cores/arduino'
p71
aS'-I/usr/share/arduino/hardware/arduino/cores/arduino/avr-libc'
p72
atp73
Rp74
tp75
a(S'stty'
p76
S'/bin/stty'
p77
tp78
a(S'arduino_lib_version'
p79
g5
(cino.environment
Version
p80
c__builtin__
tuple
p81
(I1
I0
tp82
tp83
Rp84
tp85
a(S'objcopy'
p86
S'/usr/bin/avr-objcopy'
p87
tp88
a(S'ar'
p89
S'/usr/bin/avr-ar'
p90
tp91
a(S'board_models'
p92
cino.environment
BoardModels
p93
((lp94
(lp95
S'uno'
p96
a(dp97
S'build'
p98
(dp99
S'core'
p100
S'arduino'
p101
sS'mcu'
p102
S'atmega328p'
p103
sS'f_cpu'
p104
S'16000000L'
p105
sS'variant'
p106
S'standard'
p107
ssS'bootloader'
p108
(dp109
S'extended_fuses'
p110
S'0x05'
p111
sS'high_fuses'
p112
S'0xde'
p113
sS'low_fuses'
p114
S'0xff'
p115
sS'lock_bits'
p116
S'0x0F'
p117
sS'file'
p118
S'optiboot_atmega328.hex'
p119
sS'path'
p120
S'optiboot'
p121
sS'unlock_bits'
p122
S'0x3F'
p123
ssS'upload'
p124
(dp125
S'protocol'
p126
S'arduino'
p127
sS'maximum_size'
p128
S'32256'
p129
sS'speed'
p130
S'115200'
p131
ssS'name'
p132
S'Arduino Uno'
p133
saa(lp134
S'atmega328'
p135
a(dp136
S'build'
p137
(dp138
S'core'
p139
S'arduino'
p140
sS'mcu'
p141
S'atmega328p'
p142
sS'f_cpu'
p143
S'16000000L'
p144
sS'variant'
p145
S'standard'
p146
ssS'bootloader'
p147
(dp148
S'extended_fuses'
p149
S'0x05'
p150
sS'high_fuses'
p151
S'0xDA'
p152
sS'low_fuses'
p153
S'0xFF'
p154
sS'lock_bits'
p155
S'0x0F'
p156
sS'file'
p157
S'ATmegaBOOT_168_atmega328.hex'
p158
sS'path'
p159
S'atmega'
p160
sS'unlock_bits'
p161
S'0x3F'
p162
ssS'upload'
p163
(dp164
S'protocol'
p165
S'arduino'
p166
sS'maximum_size'
p167
S'30720'
p168
sS'speed'
p169
S'57600'
p170
ssS'name'
p171
S'Arduino Duemilanove w/ ATmega328'
p172
saa(lp173
S'diecimila'
p174
a(dp175
S'build'
p176
(dp177
S'core'
p178
S'arduino'
p179
sS'mcu'
p180
S'atmega168'
p181
sS'f_cpu'
p182
S'16000000L'
p183
sS'variant'
p184
S'standard'
p185
ssS'bootloader'
p186
(dp187
S'extended_fuses'
p188
S'0x00'
p189
sS'high_fuses'
p190
S'0xdd'
p191
sS'low_fuses'
p192
S'0xff'
p193
sS'lock_bits'
p194
S'0x0F'
p195
sS'file'
p196
S'ATmegaBOOT_168_diecimila.hex'
p197
sS'path'
p198
S'atmega'
p199
sS'unlock_bits'
p200
S'0x3F'
p201
ssS'upload'
p202
(dp203
S'protocol'
p204
S'arduino'
p205
sS'maximum_size'
p206
S'14336'
p207
sS'speed'
p208
S'19200'
p209
ssS'name'
p210
S'Arduino Diecimila or Duemilanove w/ ATmega168'
p211
saa(lp212
S'nano328'
p213
a(dp214
S'build'
p215
(dp216
S'core'
p217
S'arduino'
p218
sS'mcu'
p219
S'atmega328p'
p220
sS'f_cpu'
p221
S'16000000L'
p222
sS'variant'
p223
S'eightanaloginputs'
p224
ssS'bootloader'
p225
(dp226
S'extended_fuses'
p227
S'0x05'
p228
sS'high_fuses'
p229
S'0xDA'
p230
sS'low_fuses'
p231
S'0xFF'
p232
sS'lock_bits'
p233
S'0x0F'
p234
sS'file'
p235
S'ATmegaBOOT_168_atmega328.hex'
p236
sS'path'
p237
S'atmega'
p238
sS'unlock_bits'
p239
S'0x3F'
p240
ssS'upload'
p241
(dp242
S'protocol'
p243
S'arduino'
p244
sS'maximum_size'
p245
S'30720'
p246
sS'speed'
p247
S'57600'
p248
ssS'name'
p249
S'Arduino Nano w/ ATmega328'
p250
saa(lp251
S'nano'
p252
a(dp253
S'build'
p254
(dp255
S'core'
p256
S'arduino'
p257
sS'mcu'
p258
S'atmega168'
p259
sS'f_cpu'
p260
S'16000000L'
p261
sS'variant'
p262
S'eightanaloginputs'
p263
ssS'bootloader'
p264
(dp265
S'extended_fuses'
p266
S'0x00'
p267
sS'high_fuses'
p268
S'0xdd'
p269
sS'low_fuses'
p270
S'0xff'
p271
sS'lock_bits'
p272
S'0x0F'
p273
sS'file'
p274
S'ATmegaBOOT_168_diecimila.hex'
p275
sS'path'
p276
S'atmega'
p277
sS'unlock_bits'
p278
S'0x3F'
p279
ssS'upload'
p280
(dp281
S'protocol'
p282
S'arduino'
p283
sS'maximum_size'
p284
S'14336'
p285
sS'speed'
p286
S'19200'
p287
ssS'name'
p288
S'Arduino Nano w/ ATmega168'
p289
saa(lp290
S'mega2560'
p291
a(dp292
S'build'
p293
(dp294
S'core'
p295
S'arduino'
p296
sS'mcu'
p297
S'atmega2560'
p298
sS'f_cpu'
p299
S'16000000L'
p300
sS'variant'
p301
S'mega'
p302
ssS'bootloader'
p303
(dp304
S'extended_fuses'
p305
S'0xFD'
p306
sS'high_fuses'
p307
S'0xD8'
p308
sS'low_fuses'
p309
S'0xFF'
p310
sS'lock_bits'
p311
S'0x0F'
p312
sS'file'
p313
S'stk500boot_v2_mega2560.hex'
p314
sS'path'
p315
S'stk500v2'
p316
sS'unlock_bits'
p317
S'0x3F'
p318
ssS'upload'
p319
(dp320
S'protocol'
p321
S'stk500v2'
p322
sS'maximum_size'
p323
S'258048'
p324
sS'speed'
p325
S'115200'
p326
ssS'name'
p327
S'Arduino Mega 2560 or Mega ADK'
p328
saa(lp329
S'mega'
p330
a(dp331
S'build'
p332
(dp333
S'core'
p334
S'arduino'
p335
sS'mcu'
p336
S'atmega1280'
p337
sS'f_cpu'
p338
S'16000000L'
p339
sS'variant'
p340
S'mega'
p341
ssS'bootloader'
p342
(dp343
S'extended_fuses'
p344
S'0xF5'
p345
sS'high_fuses'
p346
S'0xDA'
p347
sS'low_fuses'
p348
S'0xFF'
p349
sS'lock_bits'
p350
S'0x0F'
p351
sS'file'
p352
S'ATmegaBOOT_168_atmega1280.hex'
p353
sS'path'
p354
S'atmega'
p355
sS'unlock_bits'
p356
S'0x3F'
p357
ssS'upload'
p358
(dp359
S'protocol'
p360
S'arduino'
p361
sS'maximum_size'
p362
S'126976'
p363
sS'speed'
p364
S'57600'
p365
ssS'name'
p366
S'Arduino Mega (ATmega1280)'
p367
saa(lp368
S'leonardo'
p369
a(dp370
S'build'
p371
(dp372
S'core'
p373
S'arduino'
p374
sS'f_cpu'
p375
S'16000000L'
p376
sS'vid'
p377
S'0x2341'
p378
sS'pid'
p379
S'0x8036'
p380
sS'variant'
p381
S'leonardo'
p382
sS'mcu'
p383
S'atmega32u4'
p384
ssS'bootloader'
p385
(dp386
S'extended_fuses'
p387
S'0xcb'
p388
sS'high_fuses'
p389
S'0xd8'
p390
sS'low_fuses'
p391
S'0xff'
p392
sS'lock_bits'
p393
S'0x2F'
p394
sS'file'
p395
S'Caterina-Leonardo.hex'
p396
sS'path'
p397
S'caterina'
p398
sS'unlock_bits'
p399
S'0x3F'
p400
ssS'upload'
p401
(dp402
S'protocol'
p403
S'avr109'
p404
sS'maximum_size'
p405
S'28672'
p406
sS'speed'
p407
S'57600'
p408
sS'disable_flushing'
p409
S'true'
p410
ssS'name'
p411
S'Arduino Leonardo'
p412
saa(lp413
S'mini328'
p414
a(dp415
S'build'
p416
(dp417
S'core'
p418
S'arduino'
p419
sS'mcu'
p420
S'atmega328p'
p421
sS'f_cpu'
p422
S'16000000L'
p423
sS'variant'
p424
S'eightanaloginputs'
p425
ssS'bootloader'
p426
(dp427
S'extended_fuses'
p428
S'0x05'
p429
sS'high_fuses'
p430
S'0xd8'
p431
sS'low_fuses'
p432
S'0xff'
p433
sS'lock_bits'
p434
S'0x0F'
p435
sS'file'
p436
S'optiboot_atmega328-Mini.hex'
p437
sS'path'
p438
S'optiboot'
p439
sS'unlock_bits'
p440
S'0x3F'
p441
ssS'upload'
p442
(dp443
S'protocol'
p444
S'arduino'
p445
sS'maximum_size'
p446
S'28672'
p447
sS'speed'
p448
S'115200'
p449
ssS'name'
p450
S'Arduino Mini w/ ATmega328'
p451
saa(lp452
S'mini'
p453
a(dp454
S'build'
p455
(dp456
S'core'
p457
S'arduino'
p458
sS'mcu'
p459
S'atmega168'
p460
sS'f_cpu'
p461
S'16000000L'
p462
sS'variant'
p463
S'eightanaloginputs'
p464
ssS'bootloader'
p465
(dp466
S'extended_fuses'
p467
S'0x00'
p468
sS'high_fuses'
p469
S'0xdd'
p470
sS'low_fuses'
p471
S'0xff'
p472
sS'lock_bits'
p473
S'0x0F'
p474
sS'file'
p475
S'ATmegaBOOT_168_ng.hex'
p476
sS'path'
p477
S'atmega'
p478
sS'unlock_bits'
p479
S'0x3F'
p480
ssS'upload'
p481
(dp482
S'protocol'
p483
S'arduino'
p484
sS'maximum_size'
p485
S'14336'
p486
sS'speed'
p487
S'19200'
p488
ssS'name'
p489
S'Arduino Mini w/ ATmega168'
p490
saa(lp491
S'ethernet'
p492
a(dp493
S'build'
p494
(dp495
S'variant'
p496
S'standard'
p497
sS'mcu'
p498
S'atmega328p'
p499
sS'f_cpu'
p500
S'16000000L'
p501
sS'core'
p502
S'arduino'
p503
ssS'bootloader'
p504
(dp505
S'extended_fuses'
p506
S'0x05'
p507
sS'high_fuses'
p508
S'0xde'
p509
sS'low_fuses'
p510
S'0xff'
p511
sS'lock_bits'
p512
S'0x0F'
p513
sS'file'
p514
S'optiboot_atmega328.hex'
p515
sS'path'
p516
S'optiboot'
p517
sS'unlock_bits'
p518
S'0x3F'
p519
ssS'upload'
p520
(dp521
S'protocol'
p522
S'arduino'
p523
sS'maximum_size'
p524
S'32256'
p525
sS'speed'
p526
S'115200'
p527
ssS'name'
p528
S'Arduino Ethernet'
p529
saa(lp530
S'fio'
p531
a(dp532
S'build'
p533
(dp534
S'core'
p535
S'arduino'
p536
sS'mcu'
p537
S'atmega328p'
p538
sS'f_cpu'
p539
S'8000000L'
p540
sS'variant'
p541
S'eightanaloginputs'
p542
ssS'bootloader'
p543
(dp544
S'extended_fuses'
p545
S'0x05'
p546
sS'high_fuses'
p547
S'0xDA'
p548
sS'low_fuses'
p549
S'0xFF'
p550
sS'lock_bits'
p551
S'0x0F'
p552
sS'file'
p553
S'ATmegaBOOT_168_atmega328_pro_8MHz.hex'
p554
sS'path'
p555
S'arduino:atmega'
p556
sS'unlock_bits'
p557
S'0x3F'
p558
ssS'upload'
p559
(dp560
S'protocol'
p561
S'arduino'
p562
sS'maximum_size'
p563
S'30720'
p564
sS'speed'
p565
S'57600'
p566
ssS'name'
p567
S'Arduino Fio'
p568
saa(lp569
S'bt328'
p570
a(dp571
S'build'
p572
(dp573
S'core'
p574
S'arduino'
p575
sS'mcu'
p576
S'atmega328p'
p577
sS'f_cpu'
p578
S'16000000L'
p579
sS'variant'
p580
S'eightanaloginputs'
p581
ssS'bootloader'
p582
(dp583
S'extended_fuses'
p584
S'0x05'
p585
sS'high_fuses'
p586
S'0xd8'
p587
sS'low_fuses'
p588
S'0xff'
p589
sS'lock_bits'
p590
S'0x0F'
p591
sS'file'
p592
S'ATmegaBOOT_168_atmega328_bt.hex'
p593
sS'path'
p594
S'bt'
p595
sS'unlock_bits'
p596
S'0x3F'
p597
ssS'upload'
p598
(dp599
S'protocol'
p600
S'arduino'
p601
sS'maximum_size'
p602
S'28672'
p603
sS'speed'
p604
S'19200'
p605
sS'disable_flushing'
p606
S'true'
p607
ssS'name'
p608
S'Arduino BT w/ ATmega328'
p609
saa(lp610
S'bt'
p611
a(dp612
S'build'
p613
(dp614
S'core'
p615
S'arduino'
p616
sS'mcu'
p617
S'atmega168'
p618
sS'f_cpu'
p619
S'16000000L'
p620
sS'variant'
p621
S'eightanaloginputs'
p622
ssS'bootloader'
p623
(dp624
S'extended_fuses'
p625
S'0x00'
p626
sS'high_fuses'
p627
S'0xdd'
p628
sS'low_fuses'
p629
S'0xff'
p630
sS'lock_bits'
p631
S'0x0F'
p632
sS'file'
p633
S'ATmegaBOOT_168.hex'
p634
sS'path'
p635
S'bt'
p636
sS'unlock_bits'
p637
S'0x3F'
p638
ssS'upload'
p639
(dp640
S'protocol'
p641
S'arduino'
p642
sS'maximum_size'
p643
S'14336'
p644
sS'speed'
p645
S'19200'
p646
sS'disable_flushing'
p647
S'true'
p648
ssS'name'
p649
S'Arduino BT w/ ATmega168'
p650
saa(lp651
S'lilypad328'
p652
a(dp653
S'build'
p654
(dp655
S'core'
p656
S'arduino'
p657
sS'mcu'
p658
S'atmega328p'
p659
sS'f_cpu'
p660
S'8000000L'
p661
sS'variant'
p662
S'standard'
p663
ssS'bootloader'
p664
(dp665
S'extended_fuses'
p666
S'0x05'
p667
sS'high_fuses'
p668
S'0xDA'
p669
sS'low_fuses'
p670
S'0xFF'
p671
sS'lock_bits'
p672
S'0x0F'
p673
sS'file'
p674
S'ATmegaBOOT_168_atmega328_pro_8MHz.hex'
p675
sS'path'
p676
S'atmega'
p677
sS'unlock_bits'
p678
S'0x3F'
p679
ssS'upload'
p680
(dp681
S'protocol'
p682
S'arduino'
p683
sS'maximum_size'
p684
S'30720'
p685
sS'speed'
p686
S'57600'
p687
ssS'name'
p688
S'LilyPad Arduino w/ ATmega328'
p689
saa(lp690
S'lilypad'
p691
a(dp692
S'build'
p693
(dp694
S'core'
p695
S'arduino'
p696
sS'mcu'
p697
S'atmega168'
p698
sS'f_cpu'
p699
S'8000000L'
p700
sS'variant'
p701
S'standard'
p702
ssS'bootloader'
p703
(dp704
S'extended_fuses'
p705
S'0x00'
p706
sS'high_fuses'
p707
S'0xdd'
p708
sS'low_fuses'
p709
S'0xe2'
p710
sS'lock_bits'
p711
S'0x0F'
p712
sS'file'
p713
S'LilyPadBOOT_168.hex'
p714
sS'path'
p715
S'lilypad'
p716
sS'unlock_bits'
p717
S'0x3F'
p718
ssS'upload'
p719
(dp720
S'protocol'
p721
S'arduino'
p722
sS'maximum_size'
p723
S'14336'
p724
sS'speed'
p725
S'19200'
p726
ssS'name'
p727
S'LilyPad Arduino w/ ATmega168'
p728
saa(lp729
S'pro5v328'
p730
a(dp731
S'build'
p732
(dp733
S'core'
p734
S'arduino'
p735
sS'mcu'
p736
S'atmega328p'
p737
sS'f_cpu'
p738
S'16000000L'
p739
sS'variant'
p740
S'standard'
p741
ssS'bootloader'
p742
(dp743
S'extended_fuses'
p744
S'0x05'
p745
sS'high_fuses'
p746
S'0xDA'
p747
sS'low_fuses'
p748
S'0xFF'
p749
sS'lock_bits'
p750
S'0x0F'
p751
sS'file'
p752
S'ATmegaBOOT_168_atmega328.hex'
p753
sS'path'
p754
S'atmega'
p755
sS'unlock_bits'
p756
S'0x3F'
p757
ssS'upload'
p758
(dp759
S'protocol'
p760
S'arduino'
p761
sS'maximum_size'
p762
S'30720'
p763
sS'speed'
p764
S'57600'
p765
ssS'name'
p766
S'Arduino Pro or Pro Mini (5V, 16 MHz) w/ ATmega328'
p767
saa(lp768
S'pro5v'
p769
a(dp770
S'build'
p771
(dp772
S'core'
p773
S'arduino'
p774
sS'mcu'
p775
S'atmega168'
p776
sS'f_cpu'
p777
S'16000000L'
p778
sS'variant'
p779
S'standard'
p780
ssS'bootloader'
p781
(dp782
S'extended_fuses'
p783
S'0x00'
p784
sS'high_fuses'
p785
S'0xdd'
p786
sS'low_fuses'
p787
S'0xff'
p788
sS'lock_bits'
p789
S'0x0F'
p790
sS'file'
p791
S'ATmegaBOOT_168_diecimila.hex'
p792
sS'path'
p793
S'atmega'
p794
sS'unlock_bits'
p795
S'0x3F'
p796
ssS'upload'
p797
(dp798
S'protocol'
p799
S'arduino'
p800
sS'maximum_size'
p801
S'14336'
p802
sS'speed'
p803
S'19200'
p804
ssS'name'
p805
S'Arduino Pro or Pro Mini (5V, 16 MHz) w/ ATmega168'
p806
saa(lp807
S'pro328'
p808
a(dp809
S'build'
p810
(dp811
S'core'
p812
S'arduino'
p813
sS'mcu'
p814
S'atmega328p'
p815
sS'f_cpu'
p816
S'8000000L'
p817
sS'variant'
p818
S'standard'
p819
ssS'bootloader'
p820
(dp821
S'extended_fuses'
p822
S'0x05'
p823
sS'high_fuses'
p824
S'0xDA'
p825
sS'low_fuses'
p826
S'0xFF'
p827
sS'lock_bits'
p828
S'0x0F'
p829
sS'file'
p830
S'ATmegaBOOT_168_atmega328_pro_8MHz.hex'
p831
sS'path'
p832
S'atmega'
p833
sS'unlock_bits'
p834
S'0x3F'
p835
ssS'upload'
p836
(dp837
S'protocol'
p838
S'arduino'
p839
sS'maximum_size'
p840
S'30720'
p841
sS'speed'
p842
S'57600'
p843
ssS'name'
p844
S'Arduino Pro or Pro Mini (3.3V, 8 MHz) w/ ATmega328'
p845
saa(lp846
S'pro'
p847
a(dp848
S'build'
p849
(dp850
S'core'
p851
S'arduino'
p852
sS'mcu'
p853
S'atmega168'
p854
sS'f_cpu'
p855
S'8000000L'
p856
sS'variant'
p857
S'standard'
p858
ssS'bootloader'
p859
(dp860
S'extended_fuses'
p861
S'0x00'
p862
sS'high_fuses'
p863
S'0xdd'
p864
sS'low_fuses'
p865
S'0xc6'
p866
sS'lock_bits'
p867
S'0x0F'
p868
sS'file'
p869
S'ATmegaBOOT_168_pro_8MHz.hex'
p870
sS'path'
p871
S'atmega'
p872
sS'unlock_bits'
p873
S'0x3F'
p874
ssS'upload'
p875
(dp876
S'protocol'
p877
S'arduino'
p878
sS'maximum_size'
p879
S'14336'
p880
sS'speed'
p881
S'19200'
p882
ssS'name'
p883
S'Arduino Pro or Pro Mini (3.3V, 8 MHz) w/ ATmega168'
p884
saa(lp885
S'atmega168'
p886
a(dp887
S'build'
p888
(dp889
S'core'
p890
S'arduino'
p891
sS'mcu'
p892
S'atmega168'
p893
sS'f_cpu'
p894
S'16000000L'
p895
sS'variant'
p896
S'standard'
p897
ssS'bootloader'
p898
(dp899
S'extended_fuses'
p900
S'0x00'
p901
sS'high_fuses'
p902
S'0xdd'
p903
sS'low_fuses'
p904
S'0xff'
p905
sS'lock_bits'
p906
S'0x0F'
p907
sS'file'
p908
S'ATmegaBOOT_168_ng.hex'
p909
sS'path'
p910
S'atmega'
p911
sS'unlock_bits'
p912
S'0x3F'
p913
ssS'upload'
p914
(dp915
S'protocol'
p916
S'arduino'
p917
sS'maximum_size'
p918
S'14336'
p919
sS'speed'
p920
S'19200'
p921
ssS'name'
p922
S'Arduino NG or older w/ ATmega168'
p923
saa(lp924
S'atmega8'
p925
a(dp926
S'build'
p927
(dp928
S'core'
p929
S'arduino'
p930
sS'mcu'
p931
S'atmega8'
p932
sS'f_cpu'
p933
S'16000000L'
p934
sS'variant'
p935
S'standard'
p936
ssS'bootloader'
p937
(dp938
S'high_fuses'
p939
S'0xca'
p940
sS'low_fuses'
p941
S'0xdf'
p942
sS'lock_bits'
p943
S'0x0F'
p944
sS'file'
p945
S'ATmegaBOOT.hex'
p946
sS'path'
p947
S'atmega8'
p948
sS'unlock_bits'
p949
S'0x3F'
p950
ssS'upload'
p951
(dp952
S'protocol'
p953
S'arduino'
p954
sS'maximum_size'
p955
S'7168'
p956
sS'speed'
p957
S'19200'
p958
ssS'name'
p959
S'Arduino NG or older w/ ATmega8'
p960
saatp961
Rp962
(dp963
S'default'
p964
S'uno'
p965
sbtp966
a(S'deps'
p967
g5
(g6
g7
(lp968
S'.build/nano328/src/dependencies.d'
p969
aS'.build/nano328/arduino/dependencies.d'
p970
aS'.build/nano328/RCswitch/dependencies.d'
p971
atp972
Rp973
tp974
a(S'build_dir'
p975
S'.build/nano328'
p976
tp977
a.