(lp0
(S'elfflags'
p1
ccopy_reg
_reconstructor
p2
(cino.utils
SpaceList
p3
c__builtin__
list
p4
(lp5
S'-Os'
p6
aS'-Wl,--gc-sections'
p7
aS'-mmcu=atmega328p'
p8
atp9
Rp10
tp11
a(S'version.txt'
p12
S'/usr/share/arduino/lib/version.txt'
p13
tp14
a(S'used_libs'
p15
(lp16
S'/usr/share/arduino/hardware/arduino/cores/arduino'
p17
atp18
a(S'cxx'
p19
S'/usr/bin/avr-g++'
p20
tp21
a(S'arduino_libraries_dir'
p22
S'/usr/share/arduino/libraries'
p23
tp24
a(S'arduino_core_dir'
p25
g17
tp26
a(S'boards.txt'
p27
S'/usr/share/arduino/hardware/arduino/boards.txt'
p28
tp29
a(S'cxxflags'
p30
g2
(g3
g4
(lp31
S'-fno-exceptions'
p32
atp33
Rp34
tp35
a(S'arduino_variants_dir'
p36
S'/usr/share/arduino/hardware/arduino/variants'
p37
tp38
a(S'avrdude'
p39
S'/usr/share/arduino/hardware/tools/avrdude'
p40
tp41
a(S'avrdude.conf'
p42
S'/usr/share/arduino/hardware/tools/avrdude.conf'
p43
tp44
a(S'names'
p45
(dp46
S'cpp'
p47
S'%s.cpp'
p48
sS'obj'
p49
S'%s.o'
p50
sS'deps'
p51
S'%s.d'
p52
sS'lib'
p53
S'lib%s.a'
p54
stp55
a(S'cflags'
p56
g2
(g3
g4
(lp57
g8
aS'-ffunction-sections'
p58
aS'-fdata-sections'
p59
aS'-g'
p60
ag6
aS'-w'
p61
aS'-DF_CPU=16000000L'
p62
aS'-DARDUINO=100'
p63
aS'-I/usr/share/arduino/hardware/arduino/cores/arduino'
p64
aS'-I/usr/share/arduino/hardware/arduino/variants/eightanaloginputs'
p65
aS'-I/usr/share/arduino/hardware/arduino/cores/arduino'
p66
aS'-I/usr/share/arduino/hardware/arduino/cores/arduino/avr-libc'
p67
atp68
Rp69
tp70
a(S'deps'
p71
g2
(g3
g4
(lp72
S'.build/nano328/src/dependencies.d'
p73
aS'.build/nano328/arduino/dependencies.d'
p74
atp75
Rp76
tp77
a(S'stty'
p78
S'/bin/stty'
p79
tp80
a(S'arduino_lib_version'
p81
g2
(cino.environment
Version
p82
c__builtin__
tuple
p83
(I1
I0
tp84
tp85
Rp86
tp87
a(S'objcopy'
p88
S'/usr/bin/avr-objcopy'
p89
tp90
a(S'ar'
p91
S'/usr/bin/avr-ar'
p92
tp93
a(S'board_models'
p94
cino.environment
BoardModels
p95
((lp96
(lp97
S'uno'
p98
a(dp99
S'bootloader'
p100
(dp101
S'extended_fuses'
p102
S'0x05'
p103
sS'high_fuses'
p104
S'0xde'
p105
sS'low_fuses'
p106
S'0xff'
p107
sS'lock_bits'
p108
S'0x0F'
p109
sS'file'
p110
S'optiboot_atmega328.hex'
p111
sS'path'
p112
S'optiboot'
p113
sS'unlock_bits'
p114
S'0x3F'
p115
ssS'upload'
p116
(dp117
S'speed'
p118
S'115200'
p119
sS'maximum_size'
p120
S'32256'
p121
sS'protocol'
p122
S'arduino'
p123
ssS'name'
p124
S'Arduino Uno'
p125
sS'build'
p126
(dp127
S'core'
p128
S'arduino'
p129
sS'mcu'
p130
S'atmega328p'
p131
sS'f_cpu'
p132
S'16000000L'
p133
sS'variant'
p134
S'standard'
p135
ssaa(lp136
S'atmega328'
p137
a(dp138
S'bootloader'
p139
(dp140
S'extended_fuses'
p141
S'0x05'
p142
sS'high_fuses'
p143
S'0xDA'
p144
sS'low_fuses'
p145
S'0xFF'
p146
sS'lock_bits'
p147
S'0x0F'
p148
sS'file'
p149
S'ATmegaBOOT_168_atmega328.hex'
p150
sS'path'
p151
S'atmega'
p152
sS'unlock_bits'
p153
S'0x3F'
p154
ssS'upload'
p155
(dp156
S'speed'
p157
S'57600'
p158
sS'maximum_size'
p159
S'30720'
p160
sS'protocol'
p161
S'arduino'
p162
ssS'name'
p163
S'Arduino Duemilanove w/ ATmega328'
p164
sS'build'
p165
(dp166
S'core'
p167
S'arduino'
p168
sS'mcu'
p169
S'atmega328p'
p170
sS'f_cpu'
p171
S'16000000L'
p172
sS'variant'
p173
S'standard'
p174
ssaa(lp175
S'diecimila'
p176
a(dp177
S'bootloader'
p178
(dp179
S'extended_fuses'
p180
S'0x00'
p181
sS'high_fuses'
p182
S'0xdd'
p183
sS'low_fuses'
p184
S'0xff'
p185
sS'lock_bits'
p186
S'0x0F'
p187
sS'file'
p188
S'ATmegaBOOT_168_diecimila.hex'
p189
sS'path'
p190
S'atmega'
p191
sS'unlock_bits'
p192
S'0x3F'
p193
ssS'upload'
p194
(dp195
S'speed'
p196
S'19200'
p197
sS'maximum_size'
p198
S'14336'
p199
sS'protocol'
p200
S'arduino'
p201
ssS'name'
p202
S'Arduino Diecimila or Duemilanove w/ ATmega168'
p203
sS'build'
p204
(dp205
S'core'
p206
S'arduino'
p207
sS'mcu'
p208
S'atmega168'
p209
sS'f_cpu'
p210
S'16000000L'
p211
sS'variant'
p212
S'standard'
p213
ssaa(lp214
S'nano328'
p215
a(dp216
S'bootloader'
p217
(dp218
S'extended_fuses'
p219
S'0x05'
p220
sS'high_fuses'
p221
S'0xDA'
p222
sS'low_fuses'
p223
S'0xFF'
p224
sS'lock_bits'
p225
S'0x0F'
p226
sS'file'
p227
S'ATmegaBOOT_168_atmega328.hex'
p228
sS'path'
p229
S'atmega'
p230
sS'unlock_bits'
p231
S'0x3F'
p232
ssS'upload'
p233
(dp234
S'speed'
p235
S'57600'
p236
sS'maximum_size'
p237
S'30720'
p238
sS'protocol'
p239
S'arduino'
p240
ssS'name'
p241
S'Arduino Nano w/ ATmega328'
p242
sS'build'
p243
(dp244
S'core'
p245
S'arduino'
p246
sS'mcu'
p247
S'atmega328p'
p248
sS'f_cpu'
p249
S'16000000L'
p250
sS'variant'
p251
S'eightanaloginputs'
p252
ssaa(lp253
S'nano'
p254
a(dp255
S'bootloader'
p256
(dp257
S'extended_fuses'
p258
S'0x00'
p259
sS'high_fuses'
p260
S'0xdd'
p261
sS'low_fuses'
p262
S'0xff'
p263
sS'lock_bits'
p264
S'0x0F'
p265
sS'file'
p266
S'ATmegaBOOT_168_diecimila.hex'
p267
sS'path'
p268
S'atmega'
p269
sS'unlock_bits'
p270
S'0x3F'
p271
ssS'upload'
p272
(dp273
S'speed'
p274
S'19200'
p275
sS'maximum_size'
p276
S'14336'
p277
sS'protocol'
p278
S'arduino'
p279
ssS'name'
p280
S'Arduino Nano w/ ATmega168'
p281
sS'build'
p282
(dp283
S'core'
p284
S'arduino'
p285
sS'mcu'
p286
S'atmega168'
p287
sS'f_cpu'
p288
S'16000000L'
p289
sS'variant'
p290
S'eightanaloginputs'
p291
ssaa(lp292
S'mega2560'
p293
a(dp294
S'bootloader'
p295
(dp296
S'extended_fuses'
p297
S'0xFD'
p298
sS'high_fuses'
p299
S'0xD8'
p300
sS'low_fuses'
p301
S'0xFF'
p302
sS'lock_bits'
p303
S'0x0F'
p304
sS'file'
p305
S'stk500boot_v2_mega2560.hex'
p306
sS'path'
p307
S'stk500v2'
p308
sS'unlock_bits'
p309
S'0x3F'
p310
ssS'upload'
p311
(dp312
S'speed'
p313
S'115200'
p314
sS'maximum_size'
p315
S'258048'
p316
sS'protocol'
p317
S'stk500v2'
p318
ssS'name'
p319
S'Arduino Mega 2560 or Mega ADK'
p320
sS'build'
p321
(dp322
S'core'
p323
S'arduino'
p324
sS'mcu'
p325
S'atmega2560'
p326
sS'f_cpu'
p327
S'16000000L'
p328
sS'variant'
p329
S'mega'
p330
ssaa(lp331
S'mega'
p332
a(dp333
S'bootloader'
p334
(dp335
S'extended_fuses'
p336
S'0xF5'
p337
sS'high_fuses'
p338
S'0xDA'
p339
sS'low_fuses'
p340
S'0xFF'
p341
sS'lock_bits'
p342
S'0x0F'
p343
sS'file'
p344
S'ATmegaBOOT_168_atmega1280.hex'
p345
sS'path'
p346
S'atmega'
p347
sS'unlock_bits'
p348
S'0x3F'
p349
ssS'upload'
p350
(dp351
S'speed'
p352
S'57600'
p353
sS'maximum_size'
p354
S'126976'
p355
sS'protocol'
p356
S'arduino'
p357
ssS'name'
p358
S'Arduino Mega (ATmega1280)'
p359
sS'build'
p360
(dp361
S'core'
p362
S'arduino'
p363
sS'mcu'
p364
S'atmega1280'
p365
sS'f_cpu'
p366
S'16000000L'
p367
sS'variant'
p368
S'mega'
p369
ssaa(lp370
S'leonardo'
p371
a(dp372
S'bootloader'
p373
(dp374
S'extended_fuses'
p375
S'0xcb'
p376
sS'high_fuses'
p377
S'0xd8'
p378
sS'low_fuses'
p379
S'0xff'
p380
sS'lock_bits'
p381
S'0x2F'
p382
sS'file'
p383
S'Caterina-Leonardo.hex'
p384
sS'path'
p385
S'caterina'
p386
sS'unlock_bits'
p387
S'0x3F'
p388
ssS'upload'
p389
(dp390
S'speed'
p391
S'57600'
p392
sS'maximum_size'
p393
S'28672'
p394
sS'protocol'
p395
S'avr109'
p396
sS'disable_flushing'
p397
S'true'
p398
ssS'name'
p399
S'Arduino Leonardo'
p400
sS'build'
p401
(dp402
S'core'
p403
S'arduino'
p404
sS'f_cpu'
p405
S'16000000L'
p406
sS'vid'
p407
S'0x2341'
p408
sS'pid'
p409
S'0x8036'
p410
sS'variant'
p411
S'leonardo'
p412
sS'mcu'
p413
S'atmega32u4'
p414
ssaa(lp415
S'mini328'
p416
a(dp417
S'bootloader'
p418
(dp419
S'extended_fuses'
p420
S'0x05'
p421
sS'high_fuses'
p422
S'0xd8'
p423
sS'low_fuses'
p424
S'0xff'
p425
sS'lock_bits'
p426
S'0x0F'
p427
sS'file'
p428
S'optiboot_atmega328-Mini.hex'
p429
sS'path'
p430
S'optiboot'
p431
sS'unlock_bits'
p432
S'0x3F'
p433
ssS'upload'
p434
(dp435
S'speed'
p436
S'115200'
p437
sS'maximum_size'
p438
S'28672'
p439
sS'protocol'
p440
S'arduino'
p441
ssS'name'
p442
S'Arduino Mini w/ ATmega328'
p443
sS'build'
p444
(dp445
S'core'
p446
S'arduino'
p447
sS'mcu'
p448
S'atmega328p'
p449
sS'f_cpu'
p450
S'16000000L'
p451
sS'variant'
p452
S'eightanaloginputs'
p453
ssaa(lp454
S'mini'
p455
a(dp456
S'bootloader'
p457
(dp458
S'extended_fuses'
p459
S'0x00'
p460
sS'high_fuses'
p461
S'0xdd'
p462
sS'low_fuses'
p463
S'0xff'
p464
sS'lock_bits'
p465
S'0x0F'
p466
sS'file'
p467
S'ATmegaBOOT_168_ng.hex'
p468
sS'path'
p469
S'atmega'
p470
sS'unlock_bits'
p471
S'0x3F'
p472
ssS'upload'
p473
(dp474
S'speed'
p475
S'19200'
p476
sS'maximum_size'
p477
S'14336'
p478
sS'protocol'
p479
S'arduino'
p480
ssS'name'
p481
S'Arduino Mini w/ ATmega168'
p482
sS'build'
p483
(dp484
S'core'
p485
S'arduino'
p486
sS'mcu'
p487
S'atmega168'
p488
sS'f_cpu'
p489
S'16000000L'
p490
sS'variant'
p491
S'eightanaloginputs'
p492
ssaa(lp493
S'ethernet'
p494
a(dp495
S'bootloader'
p496
(dp497
S'extended_fuses'
p498
S'0x05'
p499
sS'high_fuses'
p500
S'0xde'
p501
sS'low_fuses'
p502
S'0xff'
p503
sS'lock_bits'
p504
S'0x0F'
p505
sS'file'
p506
S'optiboot_atmega328.hex'
p507
sS'path'
p508
S'optiboot'
p509
sS'unlock_bits'
p510
S'0x3F'
p511
ssS'upload'
p512
(dp513
S'speed'
p514
S'115200'
p515
sS'maximum_size'
p516
S'32256'
p517
sS'protocol'
p518
S'arduino'
p519
ssS'name'
p520
S'Arduino Ethernet'
p521
sS'build'
p522
(dp523
S'f_cpu'
p524
S'16000000L'
p525
sS'mcu'
p526
S'atmega328p'
p527
sS'variant'
p528
S'standard'
p529
sS'core'
p530
S'arduino'
p531
ssaa(lp532
S'fio'
p533
a(dp534
S'bootloader'
p535
(dp536
S'extended_fuses'
p537
S'0x05'
p538
sS'high_fuses'
p539
S'0xDA'
p540
sS'low_fuses'
p541
S'0xFF'
p542
sS'lock_bits'
p543
S'0x0F'
p544
sS'file'
p545
S'ATmegaBOOT_168_atmega328_pro_8MHz.hex'
p546
sS'path'
p547
S'arduino:atmega'
p548
sS'unlock_bits'
p549
S'0x3F'
p550
ssS'upload'
p551
(dp552
S'speed'
p553
S'57600'
p554
sS'maximum_size'
p555
S'30720'
p556
sS'protocol'
p557
S'arduino'
p558
ssS'name'
p559
S'Arduino Fio'
p560
sS'build'
p561
(dp562
S'core'
p563
S'arduino'
p564
sS'mcu'
p565
S'atmega328p'
p566
sS'f_cpu'
p567
S'8000000L'
p568
sS'variant'
p569
S'eightanaloginputs'
p570
ssaa(lp571
S'bt328'
p572
a(dp573
S'bootloader'
p574
(dp575
S'extended_fuses'
p576
S'0x05'
p577
sS'high_fuses'
p578
S'0xd8'
p579
sS'low_fuses'
p580
S'0xff'
p581
sS'lock_bits'
p582
S'0x0F'
p583
sS'file'
p584
S'ATmegaBOOT_168_atmega328_bt.hex'
p585
sS'path'
p586
S'bt'
p587
sS'unlock_bits'
p588
S'0x3F'
p589
ssS'upload'
p590
(dp591
S'speed'
p592
S'19200'
p593
sS'maximum_size'
p594
S'28672'
p595
sS'protocol'
p596
S'arduino'
p597
sS'disable_flushing'
p598
S'true'
p599
ssS'name'
p600
S'Arduino BT w/ ATmega328'
p601
sS'build'
p602
(dp603
S'core'
p604
S'arduino'
p605
sS'mcu'
p606
S'atmega328p'
p607
sS'f_cpu'
p608
S'16000000L'
p609
sS'variant'
p610
S'eightanaloginputs'
p611
ssaa(lp612
S'bt'
p613
a(dp614
S'bootloader'
p615
(dp616
S'extended_fuses'
p617
S'0x00'
p618
sS'high_fuses'
p619
S'0xdd'
p620
sS'low_fuses'
p621
S'0xff'
p622
sS'lock_bits'
p623
S'0x0F'
p624
sS'file'
p625
S'ATmegaBOOT_168.hex'
p626
sS'path'
p627
S'bt'
p628
sS'unlock_bits'
p629
S'0x3F'
p630
ssS'upload'
p631
(dp632
S'speed'
p633
S'19200'
p634
sS'maximum_size'
p635
S'14336'
p636
sS'protocol'
p637
S'arduino'
p638
sS'disable_flushing'
p639
S'true'
p640
ssS'name'
p641
S'Arduino BT w/ ATmega168'
p642
sS'build'
p643
(dp644
S'core'
p645
S'arduino'
p646
sS'mcu'
p647
S'atmega168'
p648
sS'f_cpu'
p649
S'16000000L'
p650
sS'variant'
p651
S'eightanaloginputs'
p652
ssaa(lp653
S'lilypad328'
p654
a(dp655
S'bootloader'
p656
(dp657
S'extended_fuses'
p658
S'0x05'
p659
sS'high_fuses'
p660
S'0xDA'
p661
sS'low_fuses'
p662
S'0xFF'
p663
sS'lock_bits'
p664
S'0x0F'
p665
sS'file'
p666
S'ATmegaBOOT_168_atmega328_pro_8MHz.hex'
p667
sS'path'
p668
S'atmega'
p669
sS'unlock_bits'
p670
S'0x3F'
p671
ssS'upload'
p672
(dp673
S'speed'
p674
S'57600'
p675
sS'maximum_size'
p676
S'30720'
p677
sS'protocol'
p678
S'arduino'
p679
ssS'name'
p680
S'LilyPad Arduino w/ ATmega328'
p681
sS'build'
p682
(dp683
S'core'
p684
S'arduino'
p685
sS'mcu'
p686
S'atmega328p'
p687
sS'f_cpu'
p688
S'8000000L'
p689
sS'variant'
p690
S'standard'
p691
ssaa(lp692
S'lilypad'
p693
a(dp694
S'bootloader'
p695
(dp696
S'extended_fuses'
p697
S'0x00'
p698
sS'high_fuses'
p699
S'0xdd'
p700
sS'low_fuses'
p701
S'0xe2'
p702
sS'lock_bits'
p703
S'0x0F'
p704
sS'file'
p705
S'LilyPadBOOT_168.hex'
p706
sS'path'
p707
S'lilypad'
p708
sS'unlock_bits'
p709
S'0x3F'
p710
ssS'upload'
p711
(dp712
S'speed'
p713
S'19200'
p714
sS'maximum_size'
p715
S'14336'
p716
sS'protocol'
p717
S'arduino'
p718
ssS'name'
p719
S'LilyPad Arduino w/ ATmega168'
p720
sS'build'
p721
(dp722
S'core'
p723
S'arduino'
p724
sS'mcu'
p725
S'atmega168'
p726
sS'f_cpu'
p727
S'8000000L'
p728
sS'variant'
p729
S'standard'
p730
ssaa(lp731
S'pro5v328'
p732
a(dp733
S'bootloader'
p734
(dp735
S'extended_fuses'
p736
S'0x05'
p737
sS'high_fuses'
p738
S'0xDA'
p739
sS'low_fuses'
p740
S'0xFF'
p741
sS'lock_bits'
p742
S'0x0F'
p743
sS'file'
p744
S'ATmegaBOOT_168_atmega328.hex'
p745
sS'path'
p746
S'atmega'
p747
sS'unlock_bits'
p748
S'0x3F'
p749
ssS'upload'
p750
(dp751
S'speed'
p752
S'57600'
p753
sS'maximum_size'
p754
S'30720'
p755
sS'protocol'
p756
S'arduino'
p757
ssS'name'
p758
S'Arduino Pro or Pro Mini (5V, 16 MHz) w/ ATmega328'
p759
sS'build'
p760
(dp761
S'core'
p762
S'arduino'
p763
sS'mcu'
p764
S'atmega328p'
p765
sS'f_cpu'
p766
S'16000000L'
p767
sS'variant'
p768
S'standard'
p769
ssaa(lp770
S'pro5v'
p771
a(dp772
S'bootloader'
p773
(dp774
S'extended_fuses'
p775
S'0x00'
p776
sS'high_fuses'
p777
S'0xdd'
p778
sS'low_fuses'
p779
S'0xff'
p780
sS'lock_bits'
p781
S'0x0F'
p782
sS'file'
p783
S'ATmegaBOOT_168_diecimila.hex'
p784
sS'path'
p785
S'atmega'
p786
sS'unlock_bits'
p787
S'0x3F'
p788
ssS'upload'
p789
(dp790
S'speed'
p791
S'19200'
p792
sS'maximum_size'
p793
S'14336'
p794
sS'protocol'
p795
S'arduino'
p796
ssS'name'
p797
S'Arduino Pro or Pro Mini (5V, 16 MHz) w/ ATmega168'
p798
sS'build'
p799
(dp800
S'core'
p801
S'arduino'
p802
sS'mcu'
p803
S'atmega168'
p804
sS'f_cpu'
p805
S'16000000L'
p806
sS'variant'
p807
S'standard'
p808
ssaa(lp809
S'pro328'
p810
a(dp811
S'bootloader'
p812
(dp813
S'extended_fuses'
p814
S'0x05'
p815
sS'high_fuses'
p816
S'0xDA'
p817
sS'low_fuses'
p818
S'0xFF'
p819
sS'lock_bits'
p820
S'0x0F'
p821
sS'file'
p822
S'ATmegaBOOT_168_atmega328_pro_8MHz.hex'
p823
sS'path'
p824
S'atmega'
p825
sS'unlock_bits'
p826
S'0x3F'
p827
ssS'upload'
p828
(dp829
S'speed'
p830
S'57600'
p831
sS'maximum_size'
p832
S'30720'
p833
sS'protocol'
p834
S'arduino'
p835
ssS'name'
p836
S'Arduino Pro or Pro Mini (3.3V, 8 MHz) w/ ATmega328'
p837
sS'build'
p838
(dp839
S'core'
p840
S'arduino'
p841
sS'mcu'
p842
S'atmega328p'
p843
sS'f_cpu'
p844
S'8000000L'
p845
sS'variant'
p846
S'standard'
p847
ssaa(lp848
S'pro'
p849
a(dp850
S'bootloader'
p851
(dp852
S'extended_fuses'
p853
S'0x00'
p854
sS'high_fuses'
p855
S'0xdd'
p856
sS'low_fuses'
p857
S'0xc6'
p858
sS'lock_bits'
p859
S'0x0F'
p860
sS'file'
p861
S'ATmegaBOOT_168_pro_8MHz.hex'
p862
sS'path'
p863
S'atmega'
p864
sS'unlock_bits'
p865
S'0x3F'
p866
ssS'upload'
p867
(dp868
S'speed'
p869
S'19200'
p870
sS'maximum_size'
p871
S'14336'
p872
sS'protocol'
p873
S'arduino'
p874
ssS'name'
p875
S'Arduino Pro or Pro Mini (3.3V, 8 MHz) w/ ATmega168'
p876
sS'build'
p877
(dp878
S'core'
p879
S'arduino'
p880
sS'mcu'
p881
S'atmega168'
p882
sS'f_cpu'
p883
S'8000000L'
p884
sS'variant'
p885
S'standard'
p886
ssaa(lp887
S'atmega168'
p888
a(dp889
S'bootloader'
p890
(dp891
S'extended_fuses'
p892
S'0x00'
p893
sS'high_fuses'
p894
S'0xdd'
p895
sS'low_fuses'
p896
S'0xff'
p897
sS'lock_bits'
p898
S'0x0F'
p899
sS'file'
p900
S'ATmegaBOOT_168_ng.hex'
p901
sS'path'
p902
S'atmega'
p903
sS'unlock_bits'
p904
S'0x3F'
p905
ssS'upload'
p906
(dp907
S'speed'
p908
S'19200'
p909
sS'maximum_size'
p910
S'14336'
p911
sS'protocol'
p912
S'arduino'
p913
ssS'name'
p914
S'Arduino NG or older w/ ATmega168'
p915
sS'build'
p916
(dp917
S'core'
p918
S'arduino'
p919
sS'mcu'
p920
S'atmega168'
p921
sS'f_cpu'
p922
S'16000000L'
p923
sS'variant'
p924
S'standard'
p925
ssaa(lp926
S'atmega8'
p927
a(dp928
S'bootloader'
p929
(dp930
S'high_fuses'
p931
S'0xca'
p932
sS'low_fuses'
p933
S'0xdf'
p934
sS'lock_bits'
p935
S'0x0F'
p936
sS'file'
p937
S'ATmegaBOOT.hex'
p938
sS'path'
p939
S'atmega8'
p940
sS'unlock_bits'
p941
S'0x3F'
p942
ssS'upload'
p943
(dp944
S'speed'
p945
S'19200'
p946
sS'maximum_size'
p947
S'7168'
p948
sS'protocol'
p949
S'arduino'
p950
ssS'name'
p951
S'Arduino NG or older w/ ATmega8'
p952
sS'build'
p953
(dp954
S'core'
p955
S'arduino'
p956
sS'mcu'
p957
S'atmega8'
p958
sS'f_cpu'
p959
S'16000000L'
p960
sS'variant'
p961
S'standard'
p962
ssaatp963
Rp964
(dp965
S'default'
p966
S'uno'
p967
sbtp968
a(S'cc'
p969
S'/usr/bin/avr-gcc'
p970
tp971
a(S'build_dir'
p972
S'.build/nano328'
p973
tp974
a.