(lp0
(S'cxx'
p1
S'/usr/bin/avr-g++'
p2
tp3
a(S'elfflags'
p4
ccopy_reg
_reconstructor
p5
(cino.utils
SpaceList
p6
c__builtin__
list
p7
(lp8
S'-Os'
p9
aS'-Wl,--gc-sections'
p10
aS'-mmcu=atmega328p'
p11
atp12
Rp13
tp14
a(S'version.txt'
p15
S'/usr/share/arduino/lib/version.txt'
p16
tp17
a(S'used_libs'
p18
(lp19
S'lib/RCswitch'
p20
aS'/usr/share/arduino/hardware/arduino/cores/arduino'
p21
atp22
a(S'cc'
p23
S'/usr/bin/avr-gcc'
p24
tp25
a(S'arduino_libraries_dir'
p26
S'/usr/share/arduino/libraries'
p27
tp28
a(S'arduino_core_dir'
p29
g21
tp30
a(S'boards.txt'
p31
S'/usr/share/arduino/hardware/arduino/boards.txt'
p32
tp33
a(S'cxxflags'
p34
g5
(g6
g7
(lp35
S'-fno-exceptions'
p36
atp37
Rp38
tp39
a(S'arduino_variants_dir'
p40
S'/usr/share/arduino/hardware/arduino/variants'
p41
tp42
a(S'avrdude'
p43
S'/usr/share/arduino/hardware/tools/avrdude'
p44
tp45
a(S'avrdude.conf'
p46
S'/usr/share/arduino/hardware/tools/avrdude.conf'
p47
tp48
a(S'names'
p49
(dp50
S'cpp'
p51
S'%s.cpp'
p52
sS'obj'
p53
S'%s.o'
p54
sS'lib'
p55
S'lib%s.a'
p56
sS'deps'
p57
S'%s.d'
p58
stp59
a(S'cflags'
p60
g5
(g6
g7
(lp61
g11
aS'-ffunction-sections'
p62
aS'-fdata-sections'
p63
aS'-g'
p64
ag9
aS'-w'
p65
aS'-DF_CPU=16000000L'
p66
aS'-DARDUINO=100'
p67
aS'-I/usr/share/arduino/hardware/arduino/cores/arduino'
p68
aS'-I/usr/share/arduino/hardware/arduino/variants/eightanaloginputs'
p69
aS'-Ilib/RCswitch'
p70
aS'-I/usr/share/arduino/hardware/arduino/cores/arduino'
p71
aS'-I/usr/share/arduino/hardware/arduino/cores/arduino/avr-libc'
p72
atp73
Rp74
tp75
a(S'stty'
p76
S'/bin/stty'
p77
tp78
a(S'arduino_lib_version'
p79
g5
(cino.environment
Version
p80
c__builtin__
tuple
p81
(I1
I0
tp82
tp83
Rp84
tp85
a(S'objcopy'
p86
S'/usr/bin/avr-objcopy'
p87
tp88
a(S'ar'
p89
S'/usr/bin/avr-ar'
p90
tp91
a(S'board_models'
p92
cino.environment
BoardModels
p93
((lp94
(lp95
S'uno'
p96
a(dp97
S'bootloader'
p98
(dp99
S'extended_fuses'
p100
S'0x05'
p101
sS'high_fuses'
p102
S'0xde'
p103
sS'low_fuses'
p104
S'0xff'
p105
sS'lock_bits'
p106
S'0x0F'
p107
sS'file'
p108
S'optiboot_atmega328.hex'
p109
sS'path'
p110
S'optiboot'
p111
sS'unlock_bits'
p112
S'0x3F'
p113
ssS'upload'
p114
(dp115
S'speed'
p116
S'115200'
p117
sS'maximum_size'
p118
S'32256'
p119
sS'protocol'
p120
S'arduino'
p121
ssS'name'
p122
S'Arduino Uno'
p123
sS'build'
p124
(dp125
S'core'
p126
S'arduino'
p127
sS'mcu'
p128
S'atmega328p'
p129
sS'f_cpu'
p130
S'16000000L'
p131
sS'variant'
p132
S'standard'
p133
ssaa(lp134
S'atmega328'
p135
a(dp136
S'bootloader'
p137
(dp138
S'extended_fuses'
p139
S'0x05'
p140
sS'high_fuses'
p141
S'0xDA'
p142
sS'low_fuses'
p143
S'0xFF'
p144
sS'lock_bits'
p145
S'0x0F'
p146
sS'file'
p147
S'ATmegaBOOT_168_atmega328.hex'
p148
sS'path'
p149
S'atmega'
p150
sS'unlock_bits'
p151
S'0x3F'
p152
ssS'upload'
p153
(dp154
S'speed'
p155
S'57600'
p156
sS'maximum_size'
p157
S'30720'
p158
sS'protocol'
p159
S'arduino'
p160
ssS'name'
p161
S'Arduino Duemilanove w/ ATmega328'
p162
sS'build'
p163
(dp164
S'core'
p165
S'arduino'
p166
sS'mcu'
p167
S'atmega328p'
p168
sS'f_cpu'
p169
S'16000000L'
p170
sS'variant'
p171
S'standard'
p172
ssaa(lp173
S'diecimila'
p174
a(dp175
S'bootloader'
p176
(dp177
S'extended_fuses'
p178
S'0x00'
p179
sS'high_fuses'
p180
S'0xdd'
p181
sS'low_fuses'
p182
S'0xff'
p183
sS'lock_bits'
p184
S'0x0F'
p185
sS'file'
p186
S'ATmegaBOOT_168_diecimila.hex'
p187
sS'path'
p188
S'atmega'
p189
sS'unlock_bits'
p190
S'0x3F'
p191
ssS'upload'
p192
(dp193
S'speed'
p194
S'19200'
p195
sS'maximum_size'
p196
S'14336'
p197
sS'protocol'
p198
S'arduino'
p199
ssS'name'
p200
S'Arduino Diecimila or Duemilanove w/ ATmega168'
p201
sS'build'
p202
(dp203
S'core'
p204
S'arduino'
p205
sS'mcu'
p206
S'atmega168'
p207
sS'f_cpu'
p208
S'16000000L'
p209
sS'variant'
p210
S'standard'
p211
ssaa(lp212
S'nano328'
p213
a(dp214
S'bootloader'
p215
(dp216
S'extended_fuses'
p217
S'0x05'
p218
sS'high_fuses'
p219
S'0xDA'
p220
sS'low_fuses'
p221
S'0xFF'
p222
sS'lock_bits'
p223
S'0x0F'
p224
sS'file'
p225
S'ATmegaBOOT_168_atmega328.hex'
p226
sS'path'
p227
S'atmega'
p228
sS'unlock_bits'
p229
S'0x3F'
p230
ssS'upload'
p231
(dp232
S'speed'
p233
S'57600'
p234
sS'maximum_size'
p235
S'30720'
p236
sS'protocol'
p237
S'arduino'
p238
ssS'name'
p239
S'Arduino Nano w/ ATmega328'
p240
sS'build'
p241
(dp242
S'core'
p243
S'arduino'
p244
sS'mcu'
p245
S'atmega328p'
p246
sS'f_cpu'
p247
S'16000000L'
p248
sS'variant'
p249
S'eightanaloginputs'
p250
ssaa(lp251
S'nano'
p252
a(dp253
S'bootloader'
p254
(dp255
S'extended_fuses'
p256
S'0x00'
p257
sS'high_fuses'
p258
S'0xdd'
p259
sS'low_fuses'
p260
S'0xff'
p261
sS'lock_bits'
p262
S'0x0F'
p263
sS'file'
p264
S'ATmegaBOOT_168_diecimila.hex'
p265
sS'path'
p266
S'atmega'
p267
sS'unlock_bits'
p268
S'0x3F'
p269
ssS'upload'
p270
(dp271
S'speed'
p272
S'19200'
p273
sS'maximum_size'
p274
S'14336'
p275
sS'protocol'
p276
S'arduino'
p277
ssS'name'
p278
S'Arduino Nano w/ ATmega168'
p279
sS'build'
p280
(dp281
S'core'
p282
S'arduino'
p283
sS'mcu'
p284
S'atmega168'
p285
sS'f_cpu'
p286
S'16000000L'
p287
sS'variant'
p288
S'eightanaloginputs'
p289
ssaa(lp290
S'mega2560'
p291
a(dp292
S'bootloader'
p293
(dp294
S'extended_fuses'
p295
S'0xFD'
p296
sS'high_fuses'
p297
S'0xD8'
p298
sS'low_fuses'
p299
S'0xFF'
p300
sS'lock_bits'
p301
S'0x0F'
p302
sS'file'
p303
S'stk500boot_v2_mega2560.hex'
p304
sS'path'
p305
S'stk500v2'
p306
sS'unlock_bits'
p307
S'0x3F'
p308
ssS'upload'
p309
(dp310
S'speed'
p311
S'115200'
p312
sS'maximum_size'
p313
S'258048'
p314
sS'protocol'
p315
S'stk500v2'
p316
ssS'name'
p317
S'Arduino Mega 2560 or Mega ADK'
p318
sS'build'
p319
(dp320
S'core'
p321
S'arduino'
p322
sS'mcu'
p323
S'atmega2560'
p324
sS'f_cpu'
p325
S'16000000L'
p326
sS'variant'
p327
S'mega'
p328
ssaa(lp329
S'mega'
p330
a(dp331
S'bootloader'
p332
(dp333
S'extended_fuses'
p334
S'0xF5'
p335
sS'high_fuses'
p336
S'0xDA'
p337
sS'low_fuses'
p338
S'0xFF'
p339
sS'lock_bits'
p340
S'0x0F'
p341
sS'file'
p342
S'ATmegaBOOT_168_atmega1280.hex'
p343
sS'path'
p344
S'atmega'
p345
sS'unlock_bits'
p346
S'0x3F'
p347
ssS'upload'
p348
(dp349
S'speed'
p350
S'57600'
p351
sS'maximum_size'
p352
S'126976'
p353
sS'protocol'
p354
S'arduino'
p355
ssS'name'
p356
S'Arduino Mega (ATmega1280)'
p357
sS'build'
p358
(dp359
S'core'
p360
S'arduino'
p361
sS'mcu'
p362
S'atmega1280'
p363
sS'f_cpu'
p364
S'16000000L'
p365
sS'variant'
p366
S'mega'
p367
ssaa(lp368
S'leonardo'
p369
a(dp370
S'bootloader'
p371
(dp372
S'extended_fuses'
p373
S'0xcb'
p374
sS'high_fuses'
p375
S'0xd8'
p376
sS'low_fuses'
p377
S'0xff'
p378
sS'lock_bits'
p379
S'0x2F'
p380
sS'file'
p381
S'Caterina-Leonardo.hex'
p382
sS'path'
p383
S'caterina'
p384
sS'unlock_bits'
p385
S'0x3F'
p386
ssS'upload'
p387
(dp388
S'speed'
p389
S'57600'
p390
sS'maximum_size'
p391
S'28672'
p392
sS'protocol'
p393
S'avr109'
p394
sS'disable_flushing'
p395
S'true'
p396
ssS'name'
p397
S'Arduino Leonardo'
p398
sS'build'
p399
(dp400
S'core'
p401
S'arduino'
p402
sS'f_cpu'
p403
S'16000000L'
p404
sS'vid'
p405
S'0x2341'
p406
sS'pid'
p407
S'0x8036'
p408
sS'variant'
p409
S'leonardo'
p410
sS'mcu'
p411
S'atmega32u4'
p412
ssaa(lp413
S'mini328'
p414
a(dp415
S'bootloader'
p416
(dp417
S'extended_fuses'
p418
S'0x05'
p419
sS'high_fuses'
p420
S'0xd8'
p421
sS'low_fuses'
p422
S'0xff'
p423
sS'lock_bits'
p424
S'0x0F'
p425
sS'file'
p426
S'optiboot_atmega328-Mini.hex'
p427
sS'path'
p428
S'optiboot'
p429
sS'unlock_bits'
p430
S'0x3F'
p431
ssS'upload'
p432
(dp433
S'speed'
p434
S'115200'
p435
sS'maximum_size'
p436
S'28672'
p437
sS'protocol'
p438
S'arduino'
p439
ssS'name'
p440
S'Arduino Mini w/ ATmega328'
p441
sS'build'
p442
(dp443
S'core'
p444
S'arduino'
p445
sS'mcu'
p446
S'atmega328p'
p447
sS'f_cpu'
p448
S'16000000L'
p449
sS'variant'
p450
S'eightanaloginputs'
p451
ssaa(lp452
S'mini'
p453
a(dp454
S'bootloader'
p455
(dp456
S'extended_fuses'
p457
S'0x00'
p458
sS'high_fuses'
p459
S'0xdd'
p460
sS'low_fuses'
p461
S'0xff'
p462
sS'lock_bits'
p463
S'0x0F'
p464
sS'file'
p465
S'ATmegaBOOT_168_ng.hex'
p466
sS'path'
p467
S'atmega'
p468
sS'unlock_bits'
p469
S'0x3F'
p470
ssS'upload'
p471
(dp472
S'speed'
p473
S'19200'
p474
sS'maximum_size'
p475
S'14336'
p476
sS'protocol'
p477
S'arduino'
p478
ssS'name'
p479
S'Arduino Mini w/ ATmega168'
p480
sS'build'
p481
(dp482
S'core'
p483
S'arduino'
p484
sS'mcu'
p485
S'atmega168'
p486
sS'f_cpu'
p487
S'16000000L'
p488
sS'variant'
p489
S'eightanaloginputs'
p490
ssaa(lp491
S'ethernet'
p492
a(dp493
S'bootloader'
p494
(dp495
S'extended_fuses'
p496
S'0x05'
p497
sS'high_fuses'
p498
S'0xde'
p499
sS'low_fuses'
p500
S'0xff'
p501
sS'lock_bits'
p502
S'0x0F'
p503
sS'file'
p504
S'optiboot_atmega328.hex'
p505
sS'path'
p506
S'optiboot'
p507
sS'unlock_bits'
p508
S'0x3F'
p509
ssS'upload'
p510
(dp511
S'speed'
p512
S'115200'
p513
sS'maximum_size'
p514
S'32256'
p515
sS'protocol'
p516
S'arduino'
p517
ssS'name'
p518
S'Arduino Ethernet'
p519
sS'build'
p520
(dp521
S'f_cpu'
p522
S'16000000L'
p523
sS'mcu'
p524
S'atmega328p'
p525
sS'variant'
p526
S'standard'
p527
sS'core'
p528
S'arduino'
p529
ssaa(lp530
S'fio'
p531
a(dp532
S'bootloader'
p533
(dp534
S'extended_fuses'
p535
S'0x05'
p536
sS'high_fuses'
p537
S'0xDA'
p538
sS'low_fuses'
p539
S'0xFF'
p540
sS'lock_bits'
p541
S'0x0F'
p542
sS'file'
p543
S'ATmegaBOOT_168_atmega328_pro_8MHz.hex'
p544
sS'path'
p545
S'arduino:atmega'
p546
sS'unlock_bits'
p547
S'0x3F'
p548
ssS'upload'
p549
(dp550
S'speed'
p551
S'57600'
p552
sS'maximum_size'
p553
S'30720'
p554
sS'protocol'
p555
S'arduino'
p556
ssS'name'
p557
S'Arduino Fio'
p558
sS'build'
p559
(dp560
S'core'
p561
S'arduino'
p562
sS'mcu'
p563
S'atmega328p'
p564
sS'f_cpu'
p565
S'8000000L'
p566
sS'variant'
p567
S'eightanaloginputs'
p568
ssaa(lp569
S'bt328'
p570
a(dp571
S'bootloader'
p572
(dp573
S'extended_fuses'
p574
S'0x05'
p575
sS'high_fuses'
p576
S'0xd8'
p577
sS'low_fuses'
p578
S'0xff'
p579
sS'lock_bits'
p580
S'0x0F'
p581
sS'file'
p582
S'ATmegaBOOT_168_atmega328_bt.hex'
p583
sS'path'
p584
S'bt'
p585
sS'unlock_bits'
p586
S'0x3F'
p587
ssS'upload'
p588
(dp589
S'speed'
p590
S'19200'
p591
sS'maximum_size'
p592
S'28672'
p593
sS'protocol'
p594
S'arduino'
p595
sS'disable_flushing'
p596
S'true'
p597
ssS'name'
p598
S'Arduino BT w/ ATmega328'
p599
sS'build'
p600
(dp601
S'core'
p602
S'arduino'
p603
sS'mcu'
p604
S'atmega328p'
p605
sS'f_cpu'
p606
S'16000000L'
p607
sS'variant'
p608
S'eightanaloginputs'
p609
ssaa(lp610
S'bt'
p611
a(dp612
S'bootloader'
p613
(dp614
S'extended_fuses'
p615
S'0x00'
p616
sS'high_fuses'
p617
S'0xdd'
p618
sS'low_fuses'
p619
S'0xff'
p620
sS'lock_bits'
p621
S'0x0F'
p622
sS'file'
p623
S'ATmegaBOOT_168.hex'
p624
sS'path'
p625
S'bt'
p626
sS'unlock_bits'
p627
S'0x3F'
p628
ssS'upload'
p629
(dp630
S'speed'
p631
S'19200'
p632
sS'maximum_size'
p633
S'14336'
p634
sS'protocol'
p635
S'arduino'
p636
sS'disable_flushing'
p637
S'true'
p638
ssS'name'
p639
S'Arduino BT w/ ATmega168'
p640
sS'build'
p641
(dp642
S'core'
p643
S'arduino'
p644
sS'mcu'
p645
S'atmega168'
p646
sS'f_cpu'
p647
S'16000000L'
p648
sS'variant'
p649
S'eightanaloginputs'
p650
ssaa(lp651
S'lilypad328'
p652
a(dp653
S'bootloader'
p654
(dp655
S'extended_fuses'
p656
S'0x05'
p657
sS'high_fuses'
p658
S'0xDA'
p659
sS'low_fuses'
p660
S'0xFF'
p661
sS'lock_bits'
p662
S'0x0F'
p663
sS'file'
p664
S'ATmegaBOOT_168_atmega328_pro_8MHz.hex'
p665
sS'path'
p666
S'atmega'
p667
sS'unlock_bits'
p668
S'0x3F'
p669
ssS'upload'
p670
(dp671
S'speed'
p672
S'57600'
p673
sS'maximum_size'
p674
S'30720'
p675
sS'protocol'
p676
S'arduino'
p677
ssS'name'
p678
S'LilyPad Arduino w/ ATmega328'
p679
sS'build'
p680
(dp681
S'core'
p682
S'arduino'
p683
sS'mcu'
p684
S'atmega328p'
p685
sS'f_cpu'
p686
S'8000000L'
p687
sS'variant'
p688
S'standard'
p689
ssaa(lp690
S'lilypad'
p691
a(dp692
S'bootloader'
p693
(dp694
S'extended_fuses'
p695
S'0x00'
p696
sS'high_fuses'
p697
S'0xdd'
p698
sS'low_fuses'
p699
S'0xe2'
p700
sS'lock_bits'
p701
S'0x0F'
p702
sS'file'
p703
S'LilyPadBOOT_168.hex'
p704
sS'path'
p705
S'lilypad'
p706
sS'unlock_bits'
p707
S'0x3F'
p708
ssS'upload'
p709
(dp710
S'speed'
p711
S'19200'
p712
sS'maximum_size'
p713
S'14336'
p714
sS'protocol'
p715
S'arduino'
p716
ssS'name'
p717
S'LilyPad Arduino w/ ATmega168'
p718
sS'build'
p719
(dp720
S'core'
p721
S'arduino'
p722
sS'mcu'
p723
S'atmega168'
p724
sS'f_cpu'
p725
S'8000000L'
p726
sS'variant'
p727
S'standard'
p728
ssaa(lp729
S'pro5v328'
p730
a(dp731
S'bootloader'
p732
(dp733
S'extended_fuses'
p734
S'0x05'
p735
sS'high_fuses'
p736
S'0xDA'
p737
sS'low_fuses'
p738
S'0xFF'
p739
sS'lock_bits'
p740
S'0x0F'
p741
sS'file'
p742
S'ATmegaBOOT_168_atmega328.hex'
p743
sS'path'
p744
S'atmega'
p745
sS'unlock_bits'
p746
S'0x3F'
p747
ssS'upload'
p748
(dp749
S'speed'
p750
S'57600'
p751
sS'maximum_size'
p752
S'30720'
p753
sS'protocol'
p754
S'arduino'
p755
ssS'name'
p756
S'Arduino Pro or Pro Mini (5V, 16 MHz) w/ ATmega328'
p757
sS'build'
p758
(dp759
S'core'
p760
S'arduino'
p761
sS'mcu'
p762
S'atmega328p'
p763
sS'f_cpu'
p764
S'16000000L'
p765
sS'variant'
p766
S'standard'
p767
ssaa(lp768
S'pro5v'
p769
a(dp770
S'bootloader'
p771
(dp772
S'extended_fuses'
p773
S'0x00'
p774
sS'high_fuses'
p775
S'0xdd'
p776
sS'low_fuses'
p777
S'0xff'
p778
sS'lock_bits'
p779
S'0x0F'
p780
sS'file'
p781
S'ATmegaBOOT_168_diecimila.hex'
p782
sS'path'
p783
S'atmega'
p784
sS'unlock_bits'
p785
S'0x3F'
p786
ssS'upload'
p787
(dp788
S'speed'
p789
S'19200'
p790
sS'maximum_size'
p791
S'14336'
p792
sS'protocol'
p793
S'arduino'
p794
ssS'name'
p795
S'Arduino Pro or Pro Mini (5V, 16 MHz) w/ ATmega168'
p796
sS'build'
p797
(dp798
S'core'
p799
S'arduino'
p800
sS'mcu'
p801
S'atmega168'
p802
sS'f_cpu'
p803
S'16000000L'
p804
sS'variant'
p805
S'standard'
p806
ssaa(lp807
S'pro328'
p808
a(dp809
S'bootloader'
p810
(dp811
S'extended_fuses'
p812
S'0x05'
p813
sS'high_fuses'
p814
S'0xDA'
p815
sS'low_fuses'
p816
S'0xFF'
p817
sS'lock_bits'
p818
S'0x0F'
p819
sS'file'
p820
S'ATmegaBOOT_168_atmega328_pro_8MHz.hex'
p821
sS'path'
p822
S'atmega'
p823
sS'unlock_bits'
p824
S'0x3F'
p825
ssS'upload'
p826
(dp827
S'speed'
p828
S'57600'
p829
sS'maximum_size'
p830
S'30720'
p831
sS'protocol'
p832
S'arduino'
p833
ssS'name'
p834
S'Arduino Pro or Pro Mini (3.3V, 8 MHz) w/ ATmega328'
p835
sS'build'
p836
(dp837
S'core'
p838
S'arduino'
p839
sS'mcu'
p840
S'atmega328p'
p841
sS'f_cpu'
p842
S'8000000L'
p843
sS'variant'
p844
S'standard'
p845
ssaa(lp846
S'pro'
p847
a(dp848
S'bootloader'
p849
(dp850
S'extended_fuses'
p851
S'0x00'
p852
sS'high_fuses'
p853
S'0xdd'
p854
sS'low_fuses'
p855
S'0xc6'
p856
sS'lock_bits'
p857
S'0x0F'
p858
sS'file'
p859
S'ATmegaBOOT_168_pro_8MHz.hex'
p860
sS'path'
p861
S'atmega'
p862
sS'unlock_bits'
p863
S'0x3F'
p864
ssS'upload'
p865
(dp866
S'speed'
p867
S'19200'
p868
sS'maximum_size'
p869
S'14336'
p870
sS'protocol'
p871
S'arduino'
p872
ssS'name'
p873
S'Arduino Pro or Pro Mini (3.3V, 8 MHz) w/ ATmega168'
p874
sS'build'
p875
(dp876
S'core'
p877
S'arduino'
p878
sS'mcu'
p879
S'atmega168'
p880
sS'f_cpu'
p881
S'8000000L'
p882
sS'variant'
p883
S'standard'
p884
ssaa(lp885
S'atmega168'
p886
a(dp887
S'bootloader'
p888
(dp889
S'extended_fuses'
p890
S'0x00'
p891
sS'high_fuses'
p892
S'0xdd'
p893
sS'low_fuses'
p894
S'0xff'
p895
sS'lock_bits'
p896
S'0x0F'
p897
sS'file'
p898
S'ATmegaBOOT_168_ng.hex'
p899
sS'path'
p900
S'atmega'
p901
sS'unlock_bits'
p902
S'0x3F'
p903
ssS'upload'
p904
(dp905
S'speed'
p906
S'19200'
p907
sS'maximum_size'
p908
S'14336'
p909
sS'protocol'
p910
S'arduino'
p911
ssS'name'
p912
S'Arduino NG or older w/ ATmega168'
p913
sS'build'
p914
(dp915
S'core'
p916
S'arduino'
p917
sS'mcu'
p918
S'atmega168'
p919
sS'f_cpu'
p920
S'16000000L'
p921
sS'variant'
p922
S'standard'
p923
ssaa(lp924
S'atmega8'
p925
a(dp926
S'bootloader'
p927
(dp928
S'high_fuses'
p929
S'0xca'
p930
sS'low_fuses'
p931
S'0xdf'
p932
sS'lock_bits'
p933
S'0x0F'
p934
sS'file'
p935
S'ATmegaBOOT.hex'
p936
sS'path'
p937
S'atmega8'
p938
sS'unlock_bits'
p939
S'0x3F'
p940
ssS'upload'
p941
(dp942
S'speed'
p943
S'19200'
p944
sS'maximum_size'
p945
S'7168'
p946
sS'protocol'
p947
S'arduino'
p948
ssS'name'
p949
S'Arduino NG or older w/ ATmega8'
p950
sS'build'
p951
(dp952
S'core'
p953
S'arduino'
p954
sS'mcu'
p955
S'atmega8'
p956
sS'f_cpu'
p957
S'16000000L'
p958
sS'variant'
p959
S'standard'
p960
ssaatp961
Rp962
(dp963
S'default'
p964
S'uno'
p965
sbtp966
a(S'deps'
p967
g5
(g6
g7
(lp968
S'.build/nano328/src/dependencies.d'
p969
aS'.build/nano328/arduino/dependencies.d'
p970
aS'.build/nano328/RCswitch/dependencies.d'
p971
atp972
Rp973
tp974
a(S'build_dir'
p975
S'.build/nano328'
p976
tp977
a.