(lp0
(S'elfflags'
p1
ccopy_reg
_reconstructor
p2
(cino.utils
SpaceList
p3
c__builtin__
list
p4
(lp5
S'-Os'
p6
aS'-Wl,--gc-sections'
p7
aS'-mmcu=atmega328p'
p8
atp9
Rp10
tp11
a(S'version.txt'
p12
S'/usr/share/arduino/lib/version.txt'
p13
tp14
a(S'used_libs'
p15
(lp16
S'/usr/share/arduino/hardware/arduino/cores/arduino'
p17
atp18
a(S'cxx'
p19
S'/usr/bin/avr-g++'
p20
tp21
a(S'arduino_variants_dir'
p22
S'/usr/share/arduino/hardware/arduino/variants'
p23
tp24
a(S'arduino_libraries_dir'
p25
S'/usr/share/arduino/libraries'
p26
tp27
a(S'arduino_core_dir'
p28
g17
tp29
a(S'boards.txt'
p30
S'/usr/share/arduino/hardware/arduino/boards.txt'
p31
tp32
a(S'cxxflags'
p33
g2
(g3
g4
(lp34
S'-fno-exceptions'
p35
atp36
Rp37
tp38
a(S'cc'
p39
S'/usr/bin/avr-gcc'
p40
tp41
a(S'avrdude'
p42
S'/usr/share/arduino/hardware/tools/avrdude'
p43
tp44
a(S'avrdude.conf'
p45
S'/usr/share/arduino/hardware/tools/avrdude.conf'
p46
tp47
a(S'names'
p48
(dp49
S'cpp'
p50
S'%s.cpp'
p51
sS'obj'
p52
S'%s.o'
p53
sS'lib'
p54
S'lib%s.a'
p55
sS'deps'
p56
S'%s.d'
p57
stp58
a(S'cflags'
p59
g2
(g3
g4
(lp60
g8
aS'-ffunction-sections'
p61
aS'-fdata-sections'
p62
aS'-g'
p63
ag6
aS'-w'
p64
aS'-DF_CPU=16000000L'
p65
aS'-DARDUINO=100'
p66
aS'-I/usr/share/arduino/hardware/arduino/cores/arduino'
p67
aS'-I/usr/share/arduino/hardware/arduino/variants/eightanaloginputs'
p68
aS'-I/usr/share/arduino/hardware/arduino/cores/arduino'
p69
aS'-I/usr/share/arduino/hardware/arduino/cores/arduino/avr-libc'
p70
atp71
Rp72
tp73
a(S'stty'
p74
S'/bin/stty'
p75
tp76
a(S'arduino_lib_version'
p77
g2
(cino.environment
Version
p78
c__builtin__
tuple
p79
(I1
I0
tp80
tp81
Rp82
tp83
a(S'objcopy'
p84
S'/usr/bin/avr-objcopy'
p85
tp86
a(S'ar'
p87
S'/usr/bin/avr-ar'
p88
tp89
a(S'board_models'
p90
cino.environment
BoardModels
p91
((lp92
(lp93
S'uno'
p94
a(dp95
S'bootloader'
p96
(dp97
S'extended_fuses'
p98
S'0x05'
p99
sS'high_fuses'
p100
S'0xde'
p101
sS'low_fuses'
p102
S'0xff'
p103
sS'lock_bits'
p104
S'0x0F'
p105
sS'file'
p106
S'optiboot_atmega328.hex'
p107
sS'path'
p108
S'optiboot'
p109
sS'unlock_bits'
p110
S'0x3F'
p111
ssS'upload'
p112
(dp113
S'protocol'
p114
S'arduino'
p115
sS'maximum_size'
p116
S'32256'
p117
sS'speed'
p118
S'115200'
p119
ssS'build'
p120
(dp121
S'core'
p122
S'arduino'
p123
sS'mcu'
p124
S'atmega328p'
p125
sS'f_cpu'
p126
S'16000000L'
p127
sS'variant'
p128
S'standard'
p129
ssS'name'
p130
S'Arduino Uno'
p131
saa(lp132
S'atmega328'
p133
a(dp134
S'bootloader'
p135
(dp136
S'extended_fuses'
p137
S'0x05'
p138
sS'high_fuses'
p139
S'0xDA'
p140
sS'low_fuses'
p141
S'0xFF'
p142
sS'lock_bits'
p143
S'0x0F'
p144
sS'file'
p145
S'ATmegaBOOT_168_atmega328.hex'
p146
sS'path'
p147
S'atmega'
p148
sS'unlock_bits'
p149
S'0x3F'
p150
ssS'upload'
p151
(dp152
S'protocol'
p153
S'arduino'
p154
sS'maximum_size'
p155
S'30720'
p156
sS'speed'
p157
S'57600'
p158
ssS'build'
p159
(dp160
S'core'
p161
S'arduino'
p162
sS'mcu'
p163
S'atmega328p'
p164
sS'f_cpu'
p165
S'16000000L'
p166
sS'variant'
p167
S'standard'
p168
ssS'name'
p169
S'Arduino Duemilanove w/ ATmega328'
p170
saa(lp171
S'diecimila'
p172
a(dp173
S'bootloader'
p174
(dp175
S'extended_fuses'
p176
S'0x00'
p177
sS'high_fuses'
p178
S'0xdd'
p179
sS'low_fuses'
p180
S'0xff'
p181
sS'lock_bits'
p182
S'0x0F'
p183
sS'file'
p184
S'ATmegaBOOT_168_diecimila.hex'
p185
sS'path'
p186
S'atmega'
p187
sS'unlock_bits'
p188
S'0x3F'
p189
ssS'upload'
p190
(dp191
S'protocol'
p192
S'arduino'
p193
sS'maximum_size'
p194
S'14336'
p195
sS'speed'
p196
S'19200'
p197
ssS'build'
p198
(dp199
S'core'
p200
S'arduino'
p201
sS'mcu'
p202
S'atmega168'
p203
sS'f_cpu'
p204
S'16000000L'
p205
sS'variant'
p206
S'standard'
p207
ssS'name'
p208
S'Arduino Diecimila or Duemilanove w/ ATmega168'
p209
saa(lp210
S'nano328'
p211
a(dp212
S'bootloader'
p213
(dp214
S'extended_fuses'
p215
S'0x05'
p216
sS'high_fuses'
p217
S'0xDA'
p218
sS'low_fuses'
p219
S'0xFF'
p220
sS'lock_bits'
p221
S'0x0F'
p222
sS'file'
p223
S'ATmegaBOOT_168_atmega328.hex'
p224
sS'path'
p225
S'atmega'
p226
sS'unlock_bits'
p227
S'0x3F'
p228
ssS'upload'
p229
(dp230
S'protocol'
p231
S'arduino'
p232
sS'maximum_size'
p233
S'30720'
p234
sS'speed'
p235
S'57600'
p236
ssS'build'
p237
(dp238
S'core'
p239
S'arduino'
p240
sS'mcu'
p241
S'atmega328p'
p242
sS'f_cpu'
p243
S'16000000L'
p244
sS'variant'
p245
S'eightanaloginputs'
p246
ssS'name'
p247
S'Arduino Nano w/ ATmega328'
p248
saa(lp249
S'nano'
p250
a(dp251
S'bootloader'
p252
(dp253
S'extended_fuses'
p254
S'0x00'
p255
sS'high_fuses'
p256
S'0xdd'
p257
sS'low_fuses'
p258
S'0xff'
p259
sS'lock_bits'
p260
S'0x0F'
p261
sS'file'
p262
S'ATmegaBOOT_168_diecimila.hex'
p263
sS'path'
p264
S'atmega'
p265
sS'unlock_bits'
p266
S'0x3F'
p267
ssS'upload'
p268
(dp269
S'protocol'
p270
S'arduino'
p271
sS'maximum_size'
p272
S'14336'
p273
sS'speed'
p274
S'19200'
p275
ssS'build'
p276
(dp277
S'core'
p278
S'arduino'
p279
sS'mcu'
p280
S'atmega168'
p281
sS'f_cpu'
p282
S'16000000L'
p283
sS'variant'
p284
S'eightanaloginputs'
p285
ssS'name'
p286
S'Arduino Nano w/ ATmega168'
p287
saa(lp288
S'mega2560'
p289
a(dp290
S'bootloader'
p291
(dp292
S'extended_fuses'
p293
S'0xFD'
p294
sS'high_fuses'
p295
S'0xD8'
p296
sS'low_fuses'
p297
S'0xFF'
p298
sS'lock_bits'
p299
S'0x0F'
p300
sS'file'
p301
S'stk500boot_v2_mega2560.hex'
p302
sS'path'
p303
S'stk500v2'
p304
sS'unlock_bits'
p305
S'0x3F'
p306
ssS'upload'
p307
(dp308
S'protocol'
p309
S'stk500v2'
p310
sS'maximum_size'
p311
S'258048'
p312
sS'speed'
p313
S'115200'
p314
ssS'build'
p315
(dp316
S'core'
p317
S'arduino'
p318
sS'mcu'
p319
S'atmega2560'
p320
sS'f_cpu'
p321
S'16000000L'
p322
sS'variant'
p323
S'mega'
p324
ssS'name'
p325
S'Arduino Mega 2560 or Mega ADK'
p326
saa(lp327
S'mega'
p328
a(dp329
S'bootloader'
p330
(dp331
S'extended_fuses'
p332
S'0xF5'
p333
sS'high_fuses'
p334
S'0xDA'
p335
sS'low_fuses'
p336
S'0xFF'
p337
sS'lock_bits'
p338
S'0x0F'
p339
sS'file'
p340
S'ATmegaBOOT_168_atmega1280.hex'
p341
sS'path'
p342
S'atmega'
p343
sS'unlock_bits'
p344
S'0x3F'
p345
ssS'upload'
p346
(dp347
S'protocol'
p348
S'arduino'
p349
sS'maximum_size'
p350
S'126976'
p351
sS'speed'
p352
S'57600'
p353
ssS'build'
p354
(dp355
S'core'
p356
S'arduino'
p357
sS'mcu'
p358
S'atmega1280'
p359
sS'f_cpu'
p360
S'16000000L'
p361
sS'variant'
p362
S'mega'
p363
ssS'name'
p364
S'Arduino Mega (ATmega1280)'
p365
saa(lp366
S'leonardo'
p367
a(dp368
S'bootloader'
p369
(dp370
S'extended_fuses'
p371
S'0xcb'
p372
sS'high_fuses'
p373
S'0xd8'
p374
sS'low_fuses'
p375
S'0xff'
p376
sS'lock_bits'
p377
S'0x2F'
p378
sS'file'
p379
S'Caterina-Leonardo.hex'
p380
sS'path'
p381
S'caterina'
p382
sS'unlock_bits'
p383
S'0x3F'
p384
ssS'upload'
p385
(dp386
S'protocol'
p387
S'avr109'
p388
sS'maximum_size'
p389
S'28672'
p390
sS'speed'
p391
S'57600'
p392
sS'disable_flushing'
p393
S'true'
p394
ssS'build'
p395
(dp396
S'core'
p397
S'arduino'
p398
sS'f_cpu'
p399
S'16000000L'
p400
sS'vid'
p401
S'0x2341'
p402
sS'pid'
p403
S'0x8036'
p404
sS'variant'
p405
S'leonardo'
p406
sS'mcu'
p407
S'atmega32u4'
p408
ssS'name'
p409
S'Arduino Leonardo'
p410
saa(lp411
S'mini328'
p412
a(dp413
S'bootloader'
p414
(dp415
S'extended_fuses'
p416
S'0x05'
p417
sS'high_fuses'
p418
S'0xd8'
p419
sS'low_fuses'
p420
S'0xff'
p421
sS'lock_bits'
p422
S'0x0F'
p423
sS'file'
p424
S'optiboot_atmega328-Mini.hex'
p425
sS'path'
p426
S'optiboot'
p427
sS'unlock_bits'
p428
S'0x3F'
p429
ssS'upload'
p430
(dp431
S'protocol'
p432
S'arduino'
p433
sS'maximum_size'
p434
S'28672'
p435
sS'speed'
p436
S'115200'
p437
ssS'build'
p438
(dp439
S'core'
p440
S'arduino'
p441
sS'mcu'
p442
S'atmega328p'
p443
sS'f_cpu'
p444
S'16000000L'
p445
sS'variant'
p446
S'eightanaloginputs'
p447
ssS'name'
p448
S'Arduino Mini w/ ATmega328'
p449
saa(lp450
S'mini'
p451
a(dp452
S'bootloader'
p453
(dp454
S'extended_fuses'
p455
S'0x00'
p456
sS'high_fuses'
p457
S'0xdd'
p458
sS'low_fuses'
p459
S'0xff'
p460
sS'lock_bits'
p461
S'0x0F'
p462
sS'file'
p463
S'ATmegaBOOT_168_ng.hex'
p464
sS'path'
p465
S'atmega'
p466
sS'unlock_bits'
p467
S'0x3F'
p468
ssS'upload'
p469
(dp470
S'protocol'
p471
S'arduino'
p472
sS'maximum_size'
p473
S'14336'
p474
sS'speed'
p475
S'19200'
p476
ssS'build'
p477
(dp478
S'core'
p479
S'arduino'
p480
sS'mcu'
p481
S'atmega168'
p482
sS'f_cpu'
p483
S'16000000L'
p484
sS'variant'
p485
S'eightanaloginputs'
p486
ssS'name'
p487
S'Arduino Mini w/ ATmega168'
p488
saa(lp489
S'ethernet'
p490
a(dp491
S'bootloader'
p492
(dp493
S'extended_fuses'
p494
S'0x05'
p495
sS'high_fuses'
p496
S'0xde'
p497
sS'low_fuses'
p498
S'0xff'
p499
sS'lock_bits'
p500
S'0x0F'
p501
sS'file'
p502
S'optiboot_atmega328.hex'
p503
sS'path'
p504
S'optiboot'
p505
sS'unlock_bits'
p506
S'0x3F'
p507
ssS'upload'
p508
(dp509
S'protocol'
p510
S'arduino'
p511
sS'maximum_size'
p512
S'32256'
p513
sS'speed'
p514
S'115200'
p515
ssS'build'
p516
(dp517
S'variant'
p518
S'standard'
p519
sS'mcu'
p520
S'atmega328p'
p521
sS'f_cpu'
p522
S'16000000L'
p523
sS'core'
p524
S'arduino'
p525
ssS'name'
p526
S'Arduino Ethernet'
p527
saa(lp528
S'fio'
p529
a(dp530
S'bootloader'
p531
(dp532
S'extended_fuses'
p533
S'0x05'
p534
sS'high_fuses'
p535
S'0xDA'
p536
sS'low_fuses'
p537
S'0xFF'
p538
sS'lock_bits'
p539
S'0x0F'
p540
sS'file'
p541
S'ATmegaBOOT_168_atmega328_pro_8MHz.hex'
p542
sS'path'
p543
S'arduino:atmega'
p544
sS'unlock_bits'
p545
S'0x3F'
p546
ssS'upload'
p547
(dp548
S'protocol'
p549
S'arduino'
p550
sS'maximum_size'
p551
S'30720'
p552
sS'speed'
p553
S'57600'
p554
ssS'build'
p555
(dp556
S'core'
p557
S'arduino'
p558
sS'mcu'
p559
S'atmega328p'
p560
sS'f_cpu'
p561
S'8000000L'
p562
sS'variant'
p563
S'eightanaloginputs'
p564
ssS'name'
p565
S'Arduino Fio'
p566
saa(lp567
S'bt328'
p568
a(dp569
S'bootloader'
p570
(dp571
S'extended_fuses'
p572
S'0x05'
p573
sS'high_fuses'
p574
S'0xd8'
p575
sS'low_fuses'
p576
S'0xff'
p577
sS'lock_bits'
p578
S'0x0F'
p579
sS'file'
p580
S'ATmegaBOOT_168_atmega328_bt.hex'
p581
sS'path'
p582
S'bt'
p583
sS'unlock_bits'
p584
S'0x3F'
p585
ssS'upload'
p586
(dp587
S'protocol'
p588
S'arduino'
p589
sS'maximum_size'
p590
S'28672'
p591
sS'speed'
p592
S'19200'
p593
sS'disable_flushing'
p594
S'true'
p595
ssS'build'
p596
(dp597
S'core'
p598
S'arduino'
p599
sS'mcu'
p600
S'atmega328p'
p601
sS'f_cpu'
p602
S'16000000L'
p603
sS'variant'
p604
S'eightanaloginputs'
p605
ssS'name'
p606
S'Arduino BT w/ ATmega328'
p607
saa(lp608
S'bt'
p609
a(dp610
S'bootloader'
p611
(dp612
S'extended_fuses'
p613
S'0x00'
p614
sS'high_fuses'
p615
S'0xdd'
p616
sS'low_fuses'
p617
S'0xff'
p618
sS'lock_bits'
p619
S'0x0F'
p620
sS'file'
p621
S'ATmegaBOOT_168.hex'
p622
sS'path'
p623
S'bt'
p624
sS'unlock_bits'
p625
S'0x3F'
p626
ssS'upload'
p627
(dp628
S'protocol'
p629
S'arduino'
p630
sS'maximum_size'
p631
S'14336'
p632
sS'speed'
p633
S'19200'
p634
sS'disable_flushing'
p635
S'true'
p636
ssS'build'
p637
(dp638
S'core'
p639
S'arduino'
p640
sS'mcu'
p641
S'atmega168'
p642
sS'f_cpu'
p643
S'16000000L'
p644
sS'variant'
p645
S'eightanaloginputs'
p646
ssS'name'
p647
S'Arduino BT w/ ATmega168'
p648
saa(lp649
S'lilypad328'
p650
a(dp651
S'bootloader'
p652
(dp653
S'extended_fuses'
p654
S'0x05'
p655
sS'high_fuses'
p656
S'0xDA'
p657
sS'low_fuses'
p658
S'0xFF'
p659
sS'lock_bits'
p660
S'0x0F'
p661
sS'file'
p662
S'ATmegaBOOT_168_atmega328_pro_8MHz.hex'
p663
sS'path'
p664
S'atmega'
p665
sS'unlock_bits'
p666
S'0x3F'
p667
ssS'upload'
p668
(dp669
S'protocol'
p670
S'arduino'
p671
sS'maximum_size'
p672
S'30720'
p673
sS'speed'
p674
S'57600'
p675
ssS'build'
p676
(dp677
S'core'
p678
S'arduino'
p679
sS'mcu'
p680
S'atmega328p'
p681
sS'f_cpu'
p682
S'8000000L'
p683
sS'variant'
p684
S'standard'
p685
ssS'name'
p686
S'LilyPad Arduino w/ ATmega328'
p687
saa(lp688
S'lilypad'
p689
a(dp690
S'bootloader'
p691
(dp692
S'extended_fuses'
p693
S'0x00'
p694
sS'high_fuses'
p695
S'0xdd'
p696
sS'low_fuses'
p697
S'0xe2'
p698
sS'lock_bits'
p699
S'0x0F'
p700
sS'file'
p701
S'LilyPadBOOT_168.hex'
p702
sS'path'
p703
S'lilypad'
p704
sS'unlock_bits'
p705
S'0x3F'
p706
ssS'upload'
p707
(dp708
S'protocol'
p709
S'arduino'
p710
sS'maximum_size'
p711
S'14336'
p712
sS'speed'
p713
S'19200'
p714
ssS'build'
p715
(dp716
S'core'
p717
S'arduino'
p718
sS'mcu'
p719
S'atmega168'
p720
sS'f_cpu'
p721
S'8000000L'
p722
sS'variant'
p723
S'standard'
p724
ssS'name'
p725
S'LilyPad Arduino w/ ATmega168'
p726
saa(lp727
S'pro5v328'
p728
a(dp729
S'bootloader'
p730
(dp731
S'extended_fuses'
p732
S'0x05'
p733
sS'high_fuses'
p734
S'0xDA'
p735
sS'low_fuses'
p736
S'0xFF'
p737
sS'lock_bits'
p738
S'0x0F'
p739
sS'file'
p740
S'ATmegaBOOT_168_atmega328.hex'
p741
sS'path'
p742
S'atmega'
p743
sS'unlock_bits'
p744
S'0x3F'
p745
ssS'upload'
p746
(dp747
S'protocol'
p748
S'arduino'
p749
sS'maximum_size'
p750
S'30720'
p751
sS'speed'
p752
S'57600'
p753
ssS'build'
p754
(dp755
S'core'
p756
S'arduino'
p757
sS'mcu'
p758
S'atmega328p'
p759
sS'f_cpu'
p760
S'16000000L'
p761
sS'variant'
p762
S'standard'
p763
ssS'name'
p764
S'Arduino Pro or Pro Mini (5V, 16 MHz) w/ ATmega328'
p765
saa(lp766
S'pro5v'
p767
a(dp768
S'bootloader'
p769
(dp770
S'extended_fuses'
p771
S'0x00'
p772
sS'high_fuses'
p773
S'0xdd'
p774
sS'low_fuses'
p775
S'0xff'
p776
sS'lock_bits'
p777
S'0x0F'
p778
sS'file'
p779
S'ATmegaBOOT_168_diecimila.hex'
p780
sS'path'
p781
S'atmega'
p782
sS'unlock_bits'
p783
S'0x3F'
p784
ssS'upload'
p785
(dp786
S'protocol'
p787
S'arduino'
p788
sS'maximum_size'
p789
S'14336'
p790
sS'speed'
p791
S'19200'
p792
ssS'build'
p793
(dp794
S'core'
p795
S'arduino'
p796
sS'mcu'
p797
S'atmega168'
p798
sS'f_cpu'
p799
S'16000000L'
p800
sS'variant'
p801
S'standard'
p802
ssS'name'
p803
S'Arduino Pro or Pro Mini (5V, 16 MHz) w/ ATmega168'
p804
saa(lp805
S'pro328'
p806
a(dp807
S'bootloader'
p808
(dp809
S'extended_fuses'
p810
S'0x05'
p811
sS'high_fuses'
p812
S'0xDA'
p813
sS'low_fuses'
p814
S'0xFF'
p815
sS'lock_bits'
p816
S'0x0F'
p817
sS'file'
p818
S'ATmegaBOOT_168_atmega328_pro_8MHz.hex'
p819
sS'path'
p820
S'atmega'
p821
sS'unlock_bits'
p822
S'0x3F'
p823
ssS'upload'
p824
(dp825
S'protocol'
p826
S'arduino'
p827
sS'maximum_size'
p828
S'30720'
p829
sS'speed'
p830
S'57600'
p831
ssS'build'
p832
(dp833
S'core'
p834
S'arduino'
p835
sS'mcu'
p836
S'atmega328p'
p837
sS'f_cpu'
p838
S'8000000L'
p839
sS'variant'
p840
S'standard'
p841
ssS'name'
p842
S'Arduino Pro or Pro Mini (3.3V, 8 MHz) w/ ATmega328'
p843
saa(lp844
S'pro'
p845
a(dp846
S'bootloader'
p847
(dp848
S'extended_fuses'
p849
S'0x00'
p850
sS'high_fuses'
p851
S'0xdd'
p852
sS'low_fuses'
p853
S'0xc6'
p854
sS'lock_bits'
p855
S'0x0F'
p856
sS'file'
p857
S'ATmegaBOOT_168_pro_8MHz.hex'
p858
sS'path'
p859
S'atmega'
p860
sS'unlock_bits'
p861
S'0x3F'
p862
ssS'upload'
p863
(dp864
S'protocol'
p865
S'arduino'
p866
sS'maximum_size'
p867
S'14336'
p868
sS'speed'
p869
S'19200'
p870
ssS'build'
p871
(dp872
S'core'
p873
S'arduino'
p874
sS'mcu'
p875
S'atmega168'
p876
sS'f_cpu'
p877
S'8000000L'
p878
sS'variant'
p879
S'standard'
p880
ssS'name'
p881
S'Arduino Pro or Pro Mini (3.3V, 8 MHz) w/ ATmega168'
p882
saa(lp883
S'atmega168'
p884
a(dp885
S'bootloader'
p886
(dp887
S'extended_fuses'
p888
S'0x00'
p889
sS'high_fuses'
p890
S'0xdd'
p891
sS'low_fuses'
p892
S'0xff'
p893
sS'lock_bits'
p894
S'0x0F'
p895
sS'file'
p896
S'ATmegaBOOT_168_ng.hex'
p897
sS'path'
p898
S'atmega'
p899
sS'unlock_bits'
p900
S'0x3F'
p901
ssS'upload'
p902
(dp903
S'protocol'
p904
S'arduino'
p905
sS'maximum_size'
p906
S'14336'
p907
sS'speed'
p908
S'19200'
p909
ssS'build'
p910
(dp911
S'core'
p912
S'arduino'
p913
sS'mcu'
p914
S'atmega168'
p915
sS'f_cpu'
p916
S'16000000L'
p917
sS'variant'
p918
S'standard'
p919
ssS'name'
p920
S'Arduino NG or older w/ ATmega168'
p921
saa(lp922
S'atmega8'
p923
a(dp924
S'bootloader'
p925
(dp926
S'high_fuses'
p927
S'0xca'
p928
sS'low_fuses'
p929
S'0xdf'
p930
sS'lock_bits'
p931
S'0x0F'
p932
sS'file'
p933
S'ATmegaBOOT.hex'
p934
sS'path'
p935
S'atmega8'
p936
sS'unlock_bits'
p937
S'0x3F'
p938
ssS'upload'
p939
(dp940
S'protocol'
p941
S'arduino'
p942
sS'maximum_size'
p943
S'7168'
p944
sS'speed'
p945
S'19200'
p946
ssS'build'
p947
(dp948
S'core'
p949
S'arduino'
p950
sS'mcu'
p951
S'atmega8'
p952
sS'f_cpu'
p953
S'16000000L'
p954
sS'variant'
p955
S'standard'
p956
ssS'name'
p957
S'Arduino NG or older w/ ATmega8'
p958
saatp959
Rp960
(dp961
S'default'
p962
S'uno'
p963
sbtp964
a(S'deps'
p965
g2
(g3
g4
(lp966
S'.build/nano328/src/dependencies.d'
p967
aS'.build/nano328/arduino/dependencies.d'
p968
atp969
Rp970
tp971
a(S'build_dir'
p972
S'.build/nano328'
p973
tp974
a.